Archive member included to satisfy reference by file (symbol)

c:/nxp/mcuxpressoide_11.1.1_3241/ide/plugins/com.nxp.mcuxpresso.tools.win32_11.1.0.202001081728/tools/bin/../lib/gcc/arm-none-eabi/8.3.1/../../../../arm-none-eabi/lib/thumb/v7e-m+dp/hard\libcr_nohost_nf.a(_cr__main.o)
                              ./startup/startup_mimxrt1021.o (__main)
c:/nxp/mcuxpressoide_11.1.1_3241/ide/plugins/com.nxp.mcuxpresso.tools.win32_11.1.0.202001081728/tools/bin/../lib/gcc/arm-none-eabi/8.3.1/../../../../arm-none-eabi/lib/thumb/v7e-m+dp/hard\libcr_c.a(memcpy.o)
                              ./utilities/fsl_str.o (memcpy)
c:/nxp/mcuxpressoide_11.1.1_3241/ide/plugins/com.nxp.mcuxpresso.tools.win32_11.1.0.202001081728/tools/bin/../lib/gcc/arm-none-eabi/8.3.1/../../../../arm-none-eabi/lib/thumb/v7e-m+dp/hard\libcr_c.a(memset.o)
                              ./utilities/fsl_debug_console.o (memset)
c:/nxp/mcuxpressoide_11.1.1_3241/ide/plugins/com.nxp.mcuxpresso.tools.win32_11.1.0.202001081728/tools/bin/../lib/gcc/arm-none-eabi/8.3.1/../../../../arm-none-eabi/lib/thumb/v7e-m+dp/hard\libcr_c.a(alloc.o)
                              ./drivers/fsl_common.o (malloc)
c:/nxp/mcuxpressoide_11.1.1_3241/ide/plugins/com.nxp.mcuxpresso.tools.win32_11.1.0.202001081728/tools/bin/../lib/gcc/arm-none-eabi/8.3.1/../../../../arm-none-eabi/lib/thumb/v7e-m+dp/hard\libcr_c.a(initio.o)
                              c:/nxp/mcuxpressoide_11.1.1_3241/ide/plugins/com.nxp.mcuxpresso.tools.win32_11.1.0.202001081728/tools/bin/../lib/gcc/arm-none-eabi/8.3.1/../../../../arm-none-eabi/lib/thumb/v7e-m+dp/hard\libcr_nohost_nf.a(_cr__main.o) (_initio)
c:/nxp/mcuxpressoide_11.1.1_3241/ide/plugins/com.nxp.mcuxpresso.tools.win32_11.1.0.202001081728/tools/bin/../lib/gcc/arm-none-eabi/8.3.1/../../../../arm-none-eabi/lib/thumb/v7e-m+dp/hard\libcr_c.a(scanf.o)
                              ./utilities/fsl_str.o (strtoul)
c:/nxp/mcuxpressoide_11.1.1_3241/ide/plugins/com.nxp.mcuxpresso.tools.win32_11.1.0.202001081728/tools/bin/../lib/gcc/arm-none-eabi/8.3.1/../../../../arm-none-eabi/lib/thumb/v7e-m+dp/hard\libcr_c.a(setvbuf.o)
                              c:/nxp/mcuxpressoide_11.1.1_3241/ide/plugins/com.nxp.mcuxpresso.tools.win32_11.1.0.202001081728/tools/bin/../lib/gcc/arm-none-eabi/8.3.1/../../../../arm-none-eabi/lib/thumb/v7e-m+dp/hard\libcr_c.a(initio.o) (setvbuf)
c:/nxp/mcuxpressoide_11.1.1_3241/ide/plugins/com.nxp.mcuxpresso.tools.win32_11.1.0.202001081728/tools/bin/../lib/gcc/arm-none-eabi/8.3.1/../../../../arm-none-eabi/lib/thumb/v7e-m+dp/hard\libcr_c.a(strlen.o)
                              ./utilities/fsl_str.o (strlen)
c:/nxp/mcuxpressoide_11.1.1_3241/ide/plugins/com.nxp.mcuxpresso.tools.win32_11.1.0.202001081728/tools/bin/../lib/gcc/arm-none-eabi/8.3.1/../../../../arm-none-eabi/lib/thumb/v7e-m+dp/hard\libcr_c.a(ungetc.o)
                              c:/nxp/mcuxpressoide_11.1.1_3241/ide/plugins/com.nxp.mcuxpresso.tools.win32_11.1.0.202001081728/tools/bin/../lib/gcc/arm-none-eabi/8.3.1/../../../../arm-none-eabi/lib/thumb/v7e-m+dp/hard\libcr_c.a(scanf.o) (ungetc)
c:/nxp/mcuxpressoide_11.1.1_3241/ide/plugins/com.nxp.mcuxpresso.tools.win32_11.1.0.202001081728/tools/bin/../lib/gcc/arm-none-eabi/8.3.1/../../../../arm-none-eabi/lib/thumb/v7e-m+dp/hard\libcr_c.a(__fillbuf.o)
                              c:/nxp/mcuxpressoide_11.1.1_3241/ide/plugins/com.nxp.mcuxpresso.tools.win32_11.1.0.202001081728/tools/bin/../lib/gcc/arm-none-eabi/8.3.1/../../../../arm-none-eabi/lib/thumb/v7e-m+dp/hard\libcr_c.a(scanf.o) (__filbuf)
c:/nxp/mcuxpressoide_11.1.1_3241/ide/plugins/com.nxp.mcuxpresso.tools.win32_11.1.0.202001081728/tools/bin/../lib/gcc/arm-none-eabi/8.3.1/../../../../arm-none-eabi/lib/thumb/v7e-m+dp/hard\libcr_c.a(__init_alloc.o)
                              c:/nxp/mcuxpressoide_11.1.1_3241/ide/plugins/com.nxp.mcuxpresso.tools.win32_11.1.0.202001081728/tools/bin/../lib/gcc/arm-none-eabi/8.3.1/../../../../arm-none-eabi/lib/thumb/v7e-m+dp/hard\libcr_c.a(alloc.o) (__heaps)
c:/nxp/mcuxpressoide_11.1.1_3241/ide/plugins/com.nxp.mcuxpresso.tools.win32_11.1.0.202001081728/tools/bin/../lib/gcc/arm-none-eabi/8.3.1/../../../../arm-none-eabi/lib/thumb/v7e-m+dp/hard\libcr_c.a(_cr_sbrk.o)
                              c:/nxp/mcuxpressoide_11.1.1_3241/ide/plugins/com.nxp.mcuxpresso.tools.win32_11.1.0.202001081728/tools/bin/../lib/gcc/arm-none-eabi/8.3.1/../../../../arm-none-eabi/lib/thumb/v7e-m+dp/hard\libcr_c.a(alloc.o) (_sbrk)
c:/nxp/mcuxpressoide_11.1.1_3241/ide/plugins/com.nxp.mcuxpresso.tools.win32_11.1.0.202001081728/tools/bin/../lib/gcc/arm-none-eabi/8.3.1/../../../../arm-none-eabi/lib/thumb/v7e-m+dp/hard\libcr_c.a(_deferredlazyseek.o)
                              c:/nxp/mcuxpressoide_11.1.1_3241/ide/plugins/com.nxp.mcuxpresso.tools.win32_11.1.0.202001081728/tools/bin/../lib/gcc/arm-none-eabi/8.3.1/../../../../arm-none-eabi/lib/thumb/v7e-m+dp/hard\libcr_c.a(__fillbuf.o) (_deferredlazyseek)
c:/nxp/mcuxpressoide_11.1.1_3241/ide/plugins/com.nxp.mcuxpresso.tools.win32_11.1.0.202001081728/tools/bin/../lib/gcc/arm-none-eabi/8.3.1/../../../../arm-none-eabi/lib/thumb/v7e-m+dp/hard\libcr_c.a(_fdopen.o)
                              c:/nxp/mcuxpressoide_11.1.1_3241/ide/plugins/com.nxp.mcuxpresso.tools.win32_11.1.0.202001081728/tools/bin/../lib/gcc/arm-none-eabi/8.3.1/../../../../arm-none-eabi/lib/thumb/v7e-m+dp/hard\libcr_c.a(initio.o) (_fdopen)
c:/nxp/mcuxpressoide_11.1.1_3241/ide/plugins/com.nxp.mcuxpresso.tools.win32_11.1.0.202001081728/tools/bin/../lib/gcc/arm-none-eabi/8.3.1/../../../../arm-none-eabi/lib/thumb/v7e-m+dp/hard\libcr_c.a(_fflush.o)
                              c:/nxp/mcuxpressoide_11.1.1_3241/ide/plugins/com.nxp.mcuxpresso.tools.win32_11.1.0.202001081728/tools/bin/../lib/gcc/arm-none-eabi/8.3.1/../../../../arm-none-eabi/lib/thumb/v7e-m+dp/hard\libcr_c.a(__fillbuf.o) (_fflush)
c:/nxp/mcuxpressoide_11.1.1_3241/ide/plugins/com.nxp.mcuxpresso.tools.win32_11.1.0.202001081728/tools/bin/../lib/gcc/arm-none-eabi/8.3.1/../../../../arm-none-eabi/lib/thumb/v7e-m+dp/hard\libcr_c.a(_frexpl.o)
                              c:/nxp/mcuxpressoide_11.1.1_3241/ide/plugins/com.nxp.mcuxpresso.tools.win32_11.1.0.202001081728/tools/bin/../lib/gcc/arm-none-eabi/8.3.1/../../../../arm-none-eabi/lib/thumb/v7e-m+dp/hard\libcr_c.a(scanf.o) (_frexpl)
c:/nxp/mcuxpressoide_11.1.1_3241/ide/plugins/com.nxp.mcuxpresso.tools.win32_11.1.0.202001081728/tools/bin/../lib/gcc/arm-none-eabi/8.3.1/../../../../arm-none-eabi/lib/thumb/v7e-m+dp/hard\libcr_c.a(_ldexpl.o)
                              c:/nxp/mcuxpressoide_11.1.1_3241/ide/plugins/com.nxp.mcuxpresso.tools.win32_11.1.0.202001081728/tools/bin/../lib/gcc/arm-none-eabi/8.3.1/../../../../arm-none-eabi/lib/thumb/v7e-m+dp/hard\libcr_c.a(scanf.o) (_ldexpl)
c:/nxp/mcuxpressoide_11.1.1_3241/ide/plugins/com.nxp.mcuxpresso.tools.win32_11.1.0.202001081728/tools/bin/../lib/gcc/arm-none-eabi/8.3.1/../../../../arm-none-eabi/lib/thumb/v7e-m+dp/hard\libcr_c.a(_writebuf.o)
                              c:/nxp/mcuxpressoide_11.1.1_3241/ide/plugins/com.nxp.mcuxpresso.tools.win32_11.1.0.202001081728/tools/bin/../lib/gcc/arm-none-eabi/8.3.1/../../../../arm-none-eabi/lib/thumb/v7e-m+dp/hard\libcr_c.a(_deferredlazyseek.o) (_Cwritebuf)
c:/nxp/mcuxpressoide_11.1.1_3241/ide/plugins/com.nxp.mcuxpresso.tools.win32_11.1.0.202001081728/tools/bin/../lib/gcc/arm-none-eabi/8.3.1/../../../../arm-none-eabi/lib/thumb/v7e-m+dp/hard\libcr_c.a(ctype.o)
                              c:/nxp/mcuxpressoide_11.1.1_3241/ide/plugins/com.nxp.mcuxpresso.tools.win32_11.1.0.202001081728/tools/bin/../lib/gcc/arm-none-eabi/8.3.1/../../../../arm-none-eabi/lib/thumb/v7e-m+dp/hard\libcr_c.a(scanf.o) (__ctype)
c:/nxp/mcuxpressoide_11.1.1_3241/ide/plugins/com.nxp.mcuxpresso.tools.win32_11.1.0.202001081728/tools/bin/../lib/gcc/arm-none-eabi/8.3.1/../../../../arm-none-eabi/lib/thumb/v7e-m+dp/hard\libcr_c.a(errno.o)
                              c:/nxp/mcuxpressoide_11.1.1_3241/ide/plugins/com.nxp.mcuxpresso.tools.win32_11.1.0.202001081728/tools/bin/../lib/gcc/arm-none-eabi/8.3.1/../../../../arm-none-eabi/lib/thumb/v7e-m+dp/hard\libcr_c.a(scanf.o) (errno)
c:/nxp/mcuxpressoide_11.1.1_3241/ide/plugins/com.nxp.mcuxpresso.tools.win32_11.1.0.202001081728/tools/bin/../lib/gcc/arm-none-eabi/8.3.1/../../../../arm-none-eabi/lib/thumb/v7e-m+dp/hard\libcr_c.a(fclose.o)
                              c:/nxp/mcuxpressoide_11.1.1_3241/ide/plugins/com.nxp.mcuxpresso.tools.win32_11.1.0.202001081728/tools/bin/../lib/gcc/arm-none-eabi/8.3.1/../../../../arm-none-eabi/lib/thumb/v7e-m+dp/hard\libcr_c.a(initio.o) (fclose)
c:/nxp/mcuxpressoide_11.1.1_3241/ide/plugins/com.nxp.mcuxpresso.tools.win32_11.1.0.202001081728/tools/bin/../lib/gcc/arm-none-eabi/8.3.1/../../../../arm-none-eabi/lib/thumb/v7e-m+dp/hard\libcr_c.a(fflush.o)
                              c:/nxp/mcuxpressoide_11.1.1_3241/ide/plugins/com.nxp.mcuxpresso.tools.win32_11.1.0.202001081728/tools/bin/../lib/gcc/arm-none-eabi/8.3.1/../../../../arm-none-eabi/lib/thumb/v7e-m+dp/hard\libcr_c.a(fclose.o) (fflush)
c:/nxp/mcuxpressoide_11.1.1_3241/ide/plugins/com.nxp.mcuxpresso.tools.win32_11.1.0.202001081728/tools/bin/../lib/gcc/arm-none-eabi/8.3.1/../../../../arm-none-eabi/lib/thumb/v7e-m+dp/hard\libcr_c.a(fseek.o)
                              c:/nxp/mcuxpressoide_11.1.1_3241/ide/plugins/com.nxp.mcuxpresso.tools.win32_11.1.0.202001081728/tools/bin/../lib/gcc/arm-none-eabi/8.3.1/../../../../arm-none-eabi/lib/thumb/v7e-m+dp/hard\libcr_c.a(_deferredlazyseek.o) (fseek)
c:/nxp/mcuxpressoide_11.1.1_3241/ide/plugins/com.nxp.mcuxpresso.tools.win32_11.1.0.202001081728/tools/bin/../lib/gcc/arm-none-eabi/8.3.1/../../../../arm-none-eabi/lib/thumb/v7e-m+dp/hard\libcr_c.a(ftell.o)
                              c:/nxp/mcuxpressoide_11.1.1_3241/ide/plugins/com.nxp.mcuxpresso.tools.win32_11.1.0.202001081728/tools/bin/../lib/gcc/arm-none-eabi/8.3.1/../../../../arm-none-eabi/lib/thumb/v7e-m+dp/hard\libcr_c.a(fseek.o) (ftell)
c:/nxp/mcuxpressoide_11.1.1_3241/ide/plugins/com.nxp.mcuxpresso.tools.win32_11.1.0.202001081728/tools/bin/../lib/gcc/arm-none-eabi/8.3.1/../../../../arm-none-eabi/lib/thumb/v7e-m+dp/hard\libcr_c.a(remove.o)
                              c:/nxp/mcuxpressoide_11.1.1_3241/ide/plugins/com.nxp.mcuxpresso.tools.win32_11.1.0.202001081728/tools/bin/../lib/gcc/arm-none-eabi/8.3.1/../../../../arm-none-eabi/lib/thumb/v7e-m+dp/hard\libcr_c.a(fclose.o) (remove)
c:/nxp/mcuxpressoide_11.1.1_3241/ide/plugins/com.nxp.mcuxpresso.tools.win32_11.1.0.202001081728/tools/bin/../lib/gcc/arm-none-eabi/8.3.1/../../../../arm-none-eabi/lib/thumb/v7e-m+dp/hard\libcr_c.a(_cr_check_heap.o)
                              c:/nxp/mcuxpressoide_11.1.1_3241/ide/plugins/com.nxp.mcuxpresso.tools.win32_11.1.0.202001081728/tools/bin/../lib/gcc/arm-none-eabi/8.3.1/../../../../arm-none-eabi/lib/thumb/v7e-m+dp/hard\libcr_c.a(_cr_sbrk.o) (__check_heap_overflow)
c:/nxp/mcuxpressoide_11.1.1_3241/ide/plugins/com.nxp.mcuxpresso.tools.win32_11.1.0.202001081728/tools/bin/../lib/gcc/arm-none-eabi/8.3.1/../../../../arm-none-eabi/lib/thumb/v7e-m+dp/hard\libcr_c.a(_do_fflush.o)
                              c:/nxp/mcuxpressoide_11.1.1_3241/ide/plugins/com.nxp.mcuxpresso.tools.win32_11.1.0.202001081728/tools/bin/../lib/gcc/arm-none-eabi/8.3.1/../../../../arm-none-eabi/lib/thumb/v7e-m+dp/hard\libcr_c.a(fflush.o) (_do_fflush)
c:/nxp/mcuxpressoide_11.1.1_3241/ide/plugins/com.nxp.mcuxpresso.tools.win32_11.1.0.202001081728/tools/bin/../lib/gcc/arm-none-eabi/8.3.1/thumb/v7e-m+dp/hard\libcr_eabihelpers.a(division_64.o)
                              ./drivers/fsl_common.o (__aeabi_uldivmod)
c:/nxp/mcuxpressoide_11.1.1_3241/ide/plugins/com.nxp.mcuxpresso.tools.win32_11.1.0.202001081728/tools/bin/../lib/gcc/arm-none-eabi/8.3.1/thumb/v7e-m+dp/hard\libcr_eabihelpers.a(division_idiv0.o)
                              c:/nxp/mcuxpressoide_11.1.1_3241/ide/plugins/com.nxp.mcuxpresso.tools.win32_11.1.0.202001081728/tools/bin/../lib/gcc/arm-none-eabi/8.3.1/thumb/v7e-m+dp/hard\libcr_eabihelpers.a(division_64.o) (__aeabi_idiv0)
c:/nxp/mcuxpressoide_11.1.1_3241/ide/plugins/com.nxp.mcuxpresso.tools.win32_11.1.0.202001081728/tools/bin/../lib/gcc/arm-none-eabi/8.3.1/thumb/v7e-m+dp/hard\libcr_eabihelpers.a(memcpy.o)
                              c:/nxp/mcuxpressoide_11.1.1_3241/ide/plugins/com.nxp.mcuxpresso.tools.win32_11.1.0.202001081728/tools/bin/../lib/gcc/arm-none-eabi/8.3.1/../../../../arm-none-eabi/lib/thumb/v7e-m+dp/hard\libcr_c.a(memcpy.o) (__aeabi_memcpy)
c:/nxp/mcuxpressoide_11.1.1_3241/ide/plugins/com.nxp.mcuxpresso.tools.win32_11.1.0.202001081728/tools/bin/../lib/gcc/arm-none-eabi/8.3.1/../../../../arm-none-eabi/lib/thumb/v7e-m+dp/hard\libcr_nohost_nf.a(__ciob.o)
                              c:/nxp/mcuxpressoide_11.1.1_3241/ide/plugins/com.nxp.mcuxpresso.tools.win32_11.1.0.202001081728/tools/bin/../lib/gcc/arm-none-eabi/8.3.1/../../../../arm-none-eabi/lib/thumb/v7e-m+dp/hard\libcr_c.a(initio.o) (__Ciob)
c:/nxp/mcuxpressoide_11.1.1_3241/ide/plugins/com.nxp.mcuxpresso.tools.win32_11.1.0.202001081728/tools/bin/../lib/gcc/arm-none-eabi/8.3.1/../../../../arm-none-eabi/lib/thumb/v7e-m+dp/hard\libcr_nohost_nf.a(__sys_appexit.o)
                              c:/nxp/mcuxpressoide_11.1.1_3241/ide/plugins/com.nxp.mcuxpresso.tools.win32_11.1.0.202001081728/tools/bin/../lib/gcc/arm-none-eabi/8.3.1/../../../../arm-none-eabi/lib/thumb/v7e-m+dp/hard\libcr_c.a(alloc.o) (__sys_appexit)
c:/nxp/mcuxpressoide_11.1.1_3241/ide/plugins/com.nxp.mcuxpresso.tools.win32_11.1.0.202001081728/tools/bin/../lib/gcc/arm-none-eabi/8.3.1/../../../../arm-none-eabi/lib/thumb/v7e-m+dp/hard\libcr_nohost_nf.a(__sys_close.o)
                              c:/nxp/mcuxpressoide_11.1.1_3241/ide/plugins/com.nxp.mcuxpresso.tools.win32_11.1.0.202001081728/tools/bin/../lib/gcc/arm-none-eabi/8.3.1/../../../../arm-none-eabi/lib/thumb/v7e-m+dp/hard\libcr_c.a(fclose.o) (__sys_close)
c:/nxp/mcuxpressoide_11.1.1_3241/ide/plugins/com.nxp.mcuxpresso.tools.win32_11.1.0.202001081728/tools/bin/../lib/gcc/arm-none-eabi/8.3.1/../../../../arm-none-eabi/lib/thumb/v7e-m+dp/hard\libcr_nohost_nf.a(__sys_flen.o)
                              c:/nxp/mcuxpressoide_11.1.1_3241/ide/plugins/com.nxp.mcuxpresso.tools.win32_11.1.0.202001081728/tools/bin/../lib/gcc/arm-none-eabi/8.3.1/../../../../arm-none-eabi/lib/thumb/v7e-m+dp/hard\libcr_c.a(_writebuf.o) (__sys_flen)
c:/nxp/mcuxpressoide_11.1.1_3241/ide/plugins/com.nxp.mcuxpresso.tools.win32_11.1.0.202001081728/tools/bin/../lib/gcc/arm-none-eabi/8.3.1/../../../../arm-none-eabi/lib/thumb/v7e-m+dp/hard\libcr_nohost_nf.a(__sys_istty.o)
                              c:/nxp/mcuxpressoide_11.1.1_3241/ide/plugins/com.nxp.mcuxpresso.tools.win32_11.1.0.202001081728/tools/bin/../lib/gcc/arm-none-eabi/8.3.1/../../../../arm-none-eabi/lib/thumb/v7e-m+dp/hard\libcr_c.a(_deferredlazyseek.o) (__sys_istty)
c:/nxp/mcuxpressoide_11.1.1_3241/ide/plugins/com.nxp.mcuxpresso.tools.win32_11.1.0.202001081728/tools/bin/../lib/gcc/arm-none-eabi/8.3.1/../../../../arm-none-eabi/lib/thumb/v7e-m+dp/hard\libcr_nohost_nf.a(__sys_read.o)
                              c:/nxp/mcuxpressoide_11.1.1_3241/ide/plugins/com.nxp.mcuxpresso.tools.win32_11.1.0.202001081728/tools/bin/../lib/gcc/arm-none-eabi/8.3.1/../../../../arm-none-eabi/lib/thumb/v7e-m+dp/hard\libcr_c.a(__fillbuf.o) (__sys_read)
c:/nxp/mcuxpressoide_11.1.1_3241/ide/plugins/com.nxp.mcuxpresso.tools.win32_11.1.0.202001081728/tools/bin/../lib/gcc/arm-none-eabi/8.3.1/../../../../arm-none-eabi/lib/thumb/v7e-m+dp/hard\libcr_nohost_nf.a(__sys_readc.o)
                              c:/nxp/mcuxpressoide_11.1.1_3241/ide/plugins/com.nxp.mcuxpresso.tools.win32_11.1.0.202001081728/tools/bin/../lib/gcc/arm-none-eabi/8.3.1/../../../../arm-none-eabi/lib/thumb/v7e-m+dp/hard\libcr_c.a(__fillbuf.o) (__sys_readc)
c:/nxp/mcuxpressoide_11.1.1_3241/ide/plugins/com.nxp.mcuxpresso.tools.win32_11.1.0.202001081728/tools/bin/../lib/gcc/arm-none-eabi/8.3.1/../../../../arm-none-eabi/lib/thumb/v7e-m+dp/hard\libcr_nohost_nf.a(__sys_remove.o)
                              c:/nxp/mcuxpressoide_11.1.1_3241/ide/plugins/com.nxp.mcuxpresso.tools.win32_11.1.0.202001081728/tools/bin/../lib/gcc/arm-none-eabi/8.3.1/../../../../arm-none-eabi/lib/thumb/v7e-m+dp/hard\libcr_c.a(remove.o) (__sys_remove)
c:/nxp/mcuxpressoide_11.1.1_3241/ide/plugins/com.nxp.mcuxpresso.tools.win32_11.1.0.202001081728/tools/bin/../lib/gcc/arm-none-eabi/8.3.1/../../../../arm-none-eabi/lib/thumb/v7e-m+dp/hard\libcr_nohost_nf.a(__sys_rename.o)
                              c:/nxp/mcuxpressoide_11.1.1_3241/ide/plugins/com.nxp.mcuxpresso.tools.win32_11.1.0.202001081728/tools/bin/../lib/gcc/arm-none-eabi/8.3.1/../../../../arm-none-eabi/lib/thumb/v7e-m+dp/hard\libcr_c.a(remove.o) (__sys_rename)
c:/nxp/mcuxpressoide_11.1.1_3241/ide/plugins/com.nxp.mcuxpresso.tools.win32_11.1.0.202001081728/tools/bin/../lib/gcc/arm-none-eabi/8.3.1/../../../../arm-none-eabi/lib/thumb/v7e-m+dp/hard\libcr_nohost_nf.a(__sys_seek.o)
                              c:/nxp/mcuxpressoide_11.1.1_3241/ide/plugins/com.nxp.mcuxpresso.tools.win32_11.1.0.202001081728/tools/bin/../lib/gcc/arm-none-eabi/8.3.1/../../../../arm-none-eabi/lib/thumb/v7e-m+dp/hard\libcr_c.a(__fillbuf.o) (__sys_seek)
c:/nxp/mcuxpressoide_11.1.1_3241/ide/plugins/com.nxp.mcuxpresso.tools.win32_11.1.0.202001081728/tools/bin/../lib/gcc/arm-none-eabi/8.3.1/../../../../arm-none-eabi/lib/thumb/v7e-m+dp/hard\libcr_nohost_nf.a(__sys_tmpnam.o)
                              c:/nxp/mcuxpressoide_11.1.1_3241/ide/plugins/com.nxp.mcuxpresso.tools.win32_11.1.0.202001081728/tools/bin/../lib/gcc/arm-none-eabi/8.3.1/../../../../arm-none-eabi/lib/thumb/v7e-m+dp/hard\libcr_c.a(fclose.o) (__sys_tmpnam)
c:/nxp/mcuxpressoide_11.1.1_3241/ide/plugins/com.nxp.mcuxpresso.tools.win32_11.1.0.202001081728/tools/bin/../lib/gcc/arm-none-eabi/8.3.1/../../../../arm-none-eabi/lib/thumb/v7e-m+dp/hard\libcr_nohost_nf.a(__sys_write.o)
                              c:/nxp/mcuxpressoide_11.1.1_3241/ide/plugins/com.nxp.mcuxpresso.tools.win32_11.1.0.202001081728/tools/bin/../lib/gcc/arm-none-eabi/8.3.1/../../../../arm-none-eabi/lib/thumb/v7e-m+dp/hard\libcr_c.a(alloc.o) (__sys_write)

Discarded input sections

 .group         0x00000000        0xc ./xip/evkmimxrt1020_flexspi_nor_config.o
 .group         0x00000000        0xc ./xip/evkmimxrt1020_flexspi_nor_config.o
 .group         0x00000000        0xc ./xip/evkmimxrt1020_flexspi_nor_config.o
 .group         0x00000000        0xc ./xip/evkmimxrt1020_flexspi_nor_config.o
 .group         0x00000000        0xc ./xip/evkmimxrt1020_flexspi_nor_config.o
 .group         0x00000000        0xc ./xip/evkmimxrt1020_flexspi_nor_config.o
 .group         0x00000000        0xc ./xip/evkmimxrt1020_flexspi_nor_config.o
 .group         0x00000000        0xc ./xip/evkmimxrt1020_flexspi_nor_config.o
 .group         0x00000000        0xc ./xip/evkmimxrt1020_flexspi_nor_config.o
 .group         0x00000000        0xc ./xip/evkmimxrt1020_flexspi_nor_config.o
 .group         0x00000000        0xc ./xip/evkmimxrt1020_flexspi_nor_config.o
 .group         0x00000000        0xc ./xip/evkmimxrt1020_flexspi_nor_config.o
 .group         0x00000000        0xc ./xip/evkmimxrt1020_flexspi_nor_config.o
 .group         0x00000000        0xc ./xip/evkmimxrt1020_flexspi_nor_config.o
 .group         0x00000000        0xc ./xip/evkmimxrt1020_flexspi_nor_config.o
 .group         0x00000000        0xc ./xip/evkmimxrt1020_flexspi_nor_config.o
 .group         0x00000000        0xc ./xip/evkmimxrt1020_flexspi_nor_config.o
 .group         0x00000000        0xc ./xip/evkmimxrt1020_flexspi_nor_config.o
 .group         0x00000000        0xc ./xip/evkmimxrt1020_flexspi_nor_config.o
 .group         0x00000000        0xc ./xip/evkmimxrt1020_flexspi_nor_config.o
 .group         0x00000000        0xc ./xip/evkmimxrt1020_flexspi_nor_config.o
 .text          0x00000000        0x0 ./xip/evkmimxrt1020_flexspi_nor_config.o
 .data          0x00000000        0x0 ./xip/evkmimxrt1020_flexspi_nor_config.o
 .bss           0x00000000        0x0 ./xip/evkmimxrt1020_flexspi_nor_config.o
 .group         0x00000000        0xc ./xip/fsl_flexspi_nor_boot.o
 .group         0x00000000        0xc ./xip/fsl_flexspi_nor_boot.o
 .group         0x00000000        0xc ./xip/fsl_flexspi_nor_boot.o
 .group         0x00000000        0xc ./xip/fsl_flexspi_nor_boot.o
 .group         0x00000000        0xc ./xip/fsl_flexspi_nor_boot.o
 .group         0x00000000        0xc ./xip/fsl_flexspi_nor_boot.o
 .group         0x00000000        0xc ./xip/fsl_flexspi_nor_boot.o
 .group         0x00000000        0xc ./xip/fsl_flexspi_nor_boot.o
 .group         0x00000000        0xc ./xip/fsl_flexspi_nor_boot.o
 .group         0x00000000        0xc ./xip/fsl_flexspi_nor_boot.o
 .group         0x00000000        0xc ./xip/fsl_flexspi_nor_boot.o
 .group         0x00000000        0xc ./xip/fsl_flexspi_nor_boot.o
 .group         0x00000000        0xc ./xip/fsl_flexspi_nor_boot.o
 .group         0x00000000        0xc ./xip/fsl_flexspi_nor_boot.o
 .group         0x00000000        0xc ./xip/fsl_flexspi_nor_boot.o
 .group         0x00000000        0xc ./xip/fsl_flexspi_nor_boot.o
 .group         0x00000000        0xc ./xip/fsl_flexspi_nor_boot.o
 .group         0x00000000        0xc ./xip/fsl_flexspi_nor_boot.o
 .group         0x00000000        0xc ./xip/fsl_flexspi_nor_boot.o
 .group         0x00000000        0xc ./xip/fsl_flexspi_nor_boot.o
 .group         0x00000000        0xc ./xip/fsl_flexspi_nor_boot.o
 .group         0x00000000        0xc ./xip/fsl_flexspi_nor_boot.o
 .group         0x00000000        0xc ./xip/fsl_flexspi_nor_boot.o
 .group         0x00000000        0xc ./xip/fsl_flexspi_nor_boot.o
 .text          0x00000000        0x0 ./xip/fsl_flexspi_nor_boot.o
 .data          0x00000000        0x0 ./xip/fsl_flexspi_nor_boot.o
 .bss           0x00000000        0x0 ./xip/fsl_flexspi_nor_boot.o
 .debug_macro   0x00000000      0xb1a ./xip/fsl_flexspi_nor_boot.o
 .debug_macro   0x00000000       0x10 ./xip/fsl_flexspi_nor_boot.o
 .debug_macro   0x00000000      0x12e ./xip/fsl_flexspi_nor_boot.o
 .debug_macro   0x00000000      0x5b3 ./xip/fsl_flexspi_nor_boot.o
 .debug_macro   0x00000000       0x16 ./xip/fsl_flexspi_nor_boot.o
 .debug_macro   0x00000000       0x22 ./xip/fsl_flexspi_nor_boot.o
 .debug_macro   0x00000000       0x22 ./xip/fsl_flexspi_nor_boot.o
 .debug_macro   0x00000000       0x10 ./xip/fsl_flexspi_nor_boot.o
 .debug_macro   0x00000000       0x4d ./xip/fsl_flexspi_nor_boot.o
 .debug_macro   0x00000000       0x1c ./xip/fsl_flexspi_nor_boot.o
 .debug_macro   0x00000000       0x22 ./xip/fsl_flexspi_nor_boot.o
 .debug_macro   0x00000000      0x101 ./xip/fsl_flexspi_nor_boot.o
 .debug_macro   0x00000000     0x1305 ./xip/fsl_flexspi_nor_boot.o
 .debug_macro   0x00000000      0x11f ./xip/fsl_flexspi_nor_boot.o
 .debug_macro   0x00000000       0x27 ./xip/fsl_flexspi_nor_boot.o
 .debug_macro   0x00000000       0x1c ./xip/fsl_flexspi_nor_boot.o
 .debug_macro   0x00000000    0x1ffc2 ./xip/fsl_flexspi_nor_boot.o
 .debug_macro   0x00000000      0x6da ./xip/fsl_flexspi_nor_boot.o
 .debug_macro   0x00000000       0xde ./xip/fsl_flexspi_nor_boot.o
 .debug_macro   0x00000000      0x1fb ./xip/fsl_flexspi_nor_boot.o
 .group         0x00000000        0xc ./utilities/fsl_assert.o
 .group         0x00000000        0xc ./utilities/fsl_assert.o
 .group         0x00000000        0xc ./utilities/fsl_assert.o
 .group         0x00000000        0xc ./utilities/fsl_assert.o
 .group         0x00000000        0xc ./utilities/fsl_assert.o
 .group         0x00000000        0xc ./utilities/fsl_assert.o
 .group         0x00000000        0xc ./utilities/fsl_assert.o
 .group         0x00000000        0xc ./utilities/fsl_assert.o
 .group         0x00000000        0xc ./utilities/fsl_assert.o
 .group         0x00000000        0xc ./utilities/fsl_assert.o
 .group         0x00000000        0xc ./utilities/fsl_assert.o
 .group         0x00000000        0xc ./utilities/fsl_assert.o
 .group         0x00000000        0xc ./utilities/fsl_assert.o
 .group         0x00000000        0xc ./utilities/fsl_assert.o
 .group         0x00000000        0xc ./utilities/fsl_assert.o
 .group         0x00000000        0xc ./utilities/fsl_assert.o
 .group         0x00000000        0xc ./utilities/fsl_assert.o
 .group         0x00000000        0xc ./utilities/fsl_assert.o
 .group         0x00000000        0xc ./utilities/fsl_assert.o
 .group         0x00000000        0xc ./utilities/fsl_assert.o
 .group         0x00000000        0xc ./utilities/fsl_assert.o
 .group         0x00000000        0xc ./utilities/fsl_assert.o
 .group         0x00000000        0xc ./utilities/fsl_assert.o
 .group         0x00000000        0xc ./utilities/fsl_assert.o
 .text          0x00000000        0x0 ./utilities/fsl_assert.o
 .data          0x00000000        0x0 ./utilities/fsl_assert.o
 .bss           0x00000000        0x0 ./utilities/fsl_assert.o
 .debug_macro   0x00000000      0xb1a ./utilities/fsl_assert.o
 .debug_macro   0x00000000       0x10 ./utilities/fsl_assert.o
 .debug_macro   0x00000000       0x22 ./utilities/fsl_assert.o
 .debug_macro   0x00000000      0x12e ./utilities/fsl_assert.o
 .debug_macro   0x00000000      0x5b3 ./utilities/fsl_assert.o
 .debug_macro   0x00000000       0x22 ./utilities/fsl_assert.o
 .debug_macro   0x00000000       0x10 ./utilities/fsl_assert.o
 .debug_macro   0x00000000       0x4d ./utilities/fsl_assert.o
 .debug_macro   0x00000000       0x1c ./utilities/fsl_assert.o
 .debug_macro   0x00000000       0x22 ./utilities/fsl_assert.o
 .debug_macro   0x00000000      0x101 ./utilities/fsl_assert.o
 .debug_macro   0x00000000     0x1305 ./utilities/fsl_assert.o
 .debug_macro   0x00000000      0x11f ./utilities/fsl_assert.o
 .debug_macro   0x00000000       0x27 ./utilities/fsl_assert.o
 .debug_macro   0x00000000       0x1c ./utilities/fsl_assert.o
 .debug_macro   0x00000000    0x1ffc2 ./utilities/fsl_assert.o
 .debug_macro   0x00000000      0x6da ./utilities/fsl_assert.o
 .debug_macro   0x00000000       0xde ./utilities/fsl_assert.o
 .debug_macro   0x00000000      0x1fb ./utilities/fsl_assert.o
 .group         0x00000000        0xc ./utilities/fsl_debug_console.o
 .group         0x00000000        0xc ./utilities/fsl_debug_console.o
 .group         0x00000000        0xc ./utilities/fsl_debug_console.o
 .group         0x00000000        0xc ./utilities/fsl_debug_console.o
 .group         0x00000000        0xc ./utilities/fsl_debug_console.o
 .group         0x00000000        0xc ./utilities/fsl_debug_console.o
 .group         0x00000000        0xc ./utilities/fsl_debug_console.o
 .group         0x00000000        0xc ./utilities/fsl_debug_console.o
 .group         0x00000000        0xc ./utilities/fsl_debug_console.o
 .group         0x00000000        0xc ./utilities/fsl_debug_console.o
 .group         0x00000000        0xc ./utilities/fsl_debug_console.o
 .group         0x00000000        0xc ./utilities/fsl_debug_console.o
 .group         0x00000000        0xc ./utilities/fsl_debug_console.o
 .group         0x00000000        0xc ./utilities/fsl_debug_console.o
 .group         0x00000000        0xc ./utilities/fsl_debug_console.o
 .group         0x00000000        0xc ./utilities/fsl_debug_console.o
 .group         0x00000000        0xc ./utilities/fsl_debug_console.o
 .group         0x00000000        0xc ./utilities/fsl_debug_console.o
 .group         0x00000000        0xc ./utilities/fsl_debug_console.o
 .group         0x00000000        0xc ./utilities/fsl_debug_console.o
 .group         0x00000000        0xc ./utilities/fsl_debug_console.o
 .group         0x00000000        0xc ./utilities/fsl_debug_console.o
 .group         0x00000000        0xc ./utilities/fsl_debug_console.o
 .group         0x00000000        0xc ./utilities/fsl_debug_console.o
 .group         0x00000000        0xc ./utilities/fsl_debug_console.o
 .group         0x00000000        0xc ./utilities/fsl_debug_console.o
 .group         0x00000000        0xc ./utilities/fsl_debug_console.o
 .text          0x00000000        0x0 ./utilities/fsl_debug_console.o
 .data          0x00000000        0x0 ./utilities/fsl_debug_console.o
 .bss           0x00000000        0x0 ./utilities/fsl_debug_console.o
 .bss.s_debugConsoleReadWaitSemaphore
                0x00000000        0x1 ./utilities/fsl_debug_console.o
 .text.DbgConsole_ReadOneCharacter
                0x00000000       0x3c ./utilities/fsl_debug_console.o
 .rodata.DbgConsole_SendData.str1.4
                0x00000000       0x4e ./utilities/fsl_debug_console.o
 .text.DbgConsole_SendData
                0x00000000       0x54 ./utilities/fsl_debug_console.o
 .rodata.DbgConsole_ReadLine.str1.4
                0x00000000       0x27 ./utilities/fsl_debug_console.o
 .text.DbgConsole_ReadLine
                0x00000000       0xb0 ./utilities/fsl_debug_console.o
 .rodata.DbgConsole_ReadCharacter.str1.4
                0x00000000       0x1e ./utilities/fsl_debug_console.o
 .text.DbgConsole_ReadCharacter
                0x00000000       0x4c ./utilities/fsl_debug_console.o
 .text.DbgConsole_Deinit
                0x00000000       0x5c ./utilities/fsl_debug_console.o
 .text.DbgConsole_Flush
                0x00000000       0x10 ./utilities/fsl_debug_console.o
 .text.DbgConsole_Putchar
                0x00000000       0x1c ./utilities/fsl_debug_console.o
 .text.DbgConsole_Scanf
                0x00000000       0x46 ./utilities/fsl_debug_console.o
 .text.DbgConsole_BlockingPrintf
                0x00000000       0x90 ./utilities/fsl_debug_console.o
 .text.DbgConsole_Getchar
                0x00000000       0x1c ./utilities/fsl_debug_console.o
 .debug_macro   0x00000000      0xb1a ./utilities/fsl_debug_console.o
 .debug_macro   0x00000000       0x10 ./utilities/fsl_debug_console.o
 .debug_macro   0x00000000      0x12e ./utilities/fsl_debug_console.o
 .debug_macro   0x00000000       0x16 ./utilities/fsl_debug_console.o
 .debug_macro   0x00000000       0x22 ./utilities/fsl_debug_console.o
 .debug_macro   0x00000000      0x5b3 ./utilities/fsl_debug_console.o
 .debug_macro   0x00000000       0x10 ./utilities/fsl_debug_console.o
 .debug_macro   0x00000000       0x4d ./utilities/fsl_debug_console.o
 .debug_macro   0x00000000       0x1c ./utilities/fsl_debug_console.o
 .debug_macro   0x00000000       0x22 ./utilities/fsl_debug_console.o
 .debug_macro   0x00000000      0x101 ./utilities/fsl_debug_console.o
 .debug_macro   0x00000000     0x1305 ./utilities/fsl_debug_console.o
 .debug_macro   0x00000000      0x11f ./utilities/fsl_debug_console.o
 .debug_macro   0x00000000       0x27 ./utilities/fsl_debug_console.o
 .debug_macro   0x00000000       0x1c ./utilities/fsl_debug_console.o
 .debug_macro   0x00000000    0x1ffc2 ./utilities/fsl_debug_console.o
 .debug_macro   0x00000000      0x6da ./utilities/fsl_debug_console.o
 .debug_macro   0x00000000       0xde ./utilities/fsl_debug_console.o
 .debug_macro   0x00000000      0x1fb ./utilities/fsl_debug_console.o
 .debug_macro   0x00000000       0x2e ./utilities/fsl_debug_console.o
 .debug_macro   0x00000000       0x2e ./utilities/fsl_debug_console.o
 .debug_macro   0x00000000       0x47 ./utilities/fsl_debug_console.o
 .group         0x00000000        0xc ./utilities/fsl_str.o
 .group         0x00000000        0xc ./utilities/fsl_str.o
 .group         0x00000000        0xc ./utilities/fsl_str.o
 .group         0x00000000        0xc ./utilities/fsl_str.o
 .group         0x00000000        0xc ./utilities/fsl_str.o
 .group         0x00000000        0xc ./utilities/fsl_str.o
 .group         0x00000000        0xc ./utilities/fsl_str.o
 .group         0x00000000        0xc ./utilities/fsl_str.o
 .group         0x00000000        0xc ./utilities/fsl_str.o
 .group         0x00000000        0xc ./utilities/fsl_str.o
 .group         0x00000000        0xc ./utilities/fsl_str.o
 .group         0x00000000        0xc ./utilities/fsl_str.o
 .group         0x00000000        0xc ./utilities/fsl_str.o
 .group         0x00000000        0xc ./utilities/fsl_str.o
 .group         0x00000000        0xc ./utilities/fsl_str.o
 .group         0x00000000        0xc ./utilities/fsl_str.o
 .group         0x00000000        0xc ./utilities/fsl_str.o
 .group         0x00000000        0xc ./utilities/fsl_str.o
 .group         0x00000000        0xc ./utilities/fsl_str.o
 .group         0x00000000        0xc ./utilities/fsl_str.o
 .group         0x00000000        0xc ./utilities/fsl_str.o
 .group         0x00000000        0xc ./utilities/fsl_str.o
 .group         0x00000000        0xc ./utilities/fsl_str.o
 .text          0x00000000        0x0 ./utilities/fsl_str.o
 .data          0x00000000        0x0 ./utilities/fsl_str.o
 .bss           0x00000000        0x0 ./utilities/fsl_str.o
 .text.ScanIsWhiteSpace
                0x00000000       0x44 ./utilities/fsl_str.o
 .text.ScanIgnoreWhiteSpace
                0x00000000       0x46 ./utilities/fsl_str.o
 .text.StrFormatScanIsFormatStarting
                0x00000000       0x36 ./utilities/fsl_str.o
 .text.StrFormatScanGetBase
                0x00000000       0x4c ./utilities/fsl_str.o
 .text.StrFormatScanCheckSymbol
                0x00000000       0x48 ./utilities/fsl_str.o
 .text.StrFormatScanFillInteger
                0x00000000       0x46 ./utilities/fsl_str.o
 .text.StrFormatScanfStringHandling
                0x00000000      0x16e ./utilities/fsl_str.o
 .text.StrFormatScanf
                0x00000000      0x2ae ./utilities/fsl_str.o
 .debug_macro   0x00000000      0xb1a ./utilities/fsl_str.o
 .debug_macro   0x00000000       0x10 ./utilities/fsl_str.o
 .debug_macro   0x00000000      0x12e ./utilities/fsl_str.o
 .debug_macro   0x00000000       0x28 ./utilities/fsl_str.o
 .debug_macro   0x00000000       0x16 ./utilities/fsl_str.o
 .debug_macro   0x00000000       0x22 ./utilities/fsl_str.o
 .debug_macro   0x00000000      0x5b3 ./utilities/fsl_str.o
 .debug_macro   0x00000000       0x10 ./utilities/fsl_str.o
 .debug_macro   0x00000000       0x4d ./utilities/fsl_str.o
 .debug_macro   0x00000000       0x1c ./utilities/fsl_str.o
 .debug_macro   0x00000000       0x22 ./utilities/fsl_str.o
 .debug_macro   0x00000000      0x101 ./utilities/fsl_str.o
 .debug_macro   0x00000000     0x1305 ./utilities/fsl_str.o
 .debug_macro   0x00000000      0x11f ./utilities/fsl_str.o
 .debug_macro   0x00000000       0x27 ./utilities/fsl_str.o
 .debug_macro   0x00000000       0x1c ./utilities/fsl_str.o
 .debug_macro   0x00000000    0x1ffc2 ./utilities/fsl_str.o
 .debug_macro   0x00000000      0x6da ./utilities/fsl_str.o
 .debug_macro   0x00000000       0xde ./utilities/fsl_str.o
 .debug_macro   0x00000000      0x1fb ./utilities/fsl_str.o
 .group         0x00000000        0xc ./startup/startup_mimxrt1021.o
 .text          0x00000000        0x0 ./startup/startup_mimxrt1021.o
 .data          0x00000000        0x0 ./startup/startup_mimxrt1021.o
 .bss           0x00000000        0x0 ./startup/startup_mimxrt1021.o
 .debug_macro   0x00000000      0xb1a ./startup/startup_mimxrt1021.o
 .group         0x00000000        0xc ./source/bl_api.o
 .text          0x00000000        0x0 ./source/bl_api.o
 .data          0x00000000        0x0 ./source/bl_api.o
 .bss           0x00000000        0x0 ./source/bl_api.o
 .debug_info    0x00000000       0x21 ./source/bl_api.o
 .debug_abbrev  0x00000000       0x13 ./source/bl_api.o
 .debug_aranges
                0x00000000       0x18 ./source/bl_api.o
 .debug_macro   0x00000000       0x11 ./source/bl_api.o
 .debug_macro   0x00000000      0xb1a ./source/bl_api.o
 .debug_line    0x00000000       0x33 ./source/bl_api.o
 .debug_str     0x00000000     0x2f9d ./source/bl_api.o
 .comment       0x00000000       0x77 ./source/bl_api.o
 .ARM.attributes
                0x00000000       0x37 ./source/bl_api.o
 .group         0x00000000        0xc ./source/hello_world.o
 .group         0x00000000        0xc ./source/hello_world.o
 .group         0x00000000        0xc ./source/hello_world.o
 .group         0x00000000        0xc ./source/hello_world.o
 .group         0x00000000        0xc ./source/hello_world.o
 .group         0x00000000        0xc ./source/hello_world.o
 .group         0x00000000        0xc ./source/hello_world.o
 .group         0x00000000        0xc ./source/hello_world.o
 .group         0x00000000        0xc ./source/hello_world.o
 .group         0x00000000        0xc ./source/hello_world.o
 .group         0x00000000        0xc ./source/hello_world.o
 .group         0x00000000        0xc ./source/hello_world.o
 .group         0x00000000        0xc ./source/hello_world.o
 .group         0x00000000        0xc ./source/hello_world.o
 .group         0x00000000        0xc ./source/hello_world.o
 .group         0x00000000        0xc ./source/hello_world.o
 .group         0x00000000        0xc ./source/hello_world.o
 .group         0x00000000        0xc ./source/hello_world.o
 .group         0x00000000        0xc ./source/hello_world.o
 .group         0x00000000        0xc ./source/hello_world.o
 .group         0x00000000        0xc ./source/hello_world.o
 .group         0x00000000        0xc ./source/hello_world.o
 .group         0x00000000        0xc ./source/hello_world.o
 .group         0x00000000        0xc ./source/hello_world.o
 .group         0x00000000        0xc ./source/hello_world.o
 .group         0x00000000        0xc ./source/hello_world.o
 .group         0x00000000        0xc ./source/hello_world.o
 .group         0x00000000        0xc ./source/hello_world.o
 .text          0x00000000        0x0 ./source/hello_world.o
 .data          0x00000000        0x0 ./source/hello_world.o
 .bss           0x00000000        0x0 ./source/hello_world.o
 .debug_macro   0x00000000      0xb1a ./source/hello_world.o
 .debug_macro   0x00000000       0x10 ./source/hello_world.o
 .debug_macro   0x00000000       0x4d ./source/hello_world.o
 .debug_macro   0x00000000       0x10 ./source/hello_world.o
 .debug_macro   0x00000000      0x12e ./source/hello_world.o
 .debug_macro   0x00000000      0x5b3 ./source/hello_world.o
 .debug_macro   0x00000000       0x1c ./source/hello_world.o
 .debug_macro   0x00000000       0x22 ./source/hello_world.o
 .debug_macro   0x00000000      0x101 ./source/hello_world.o
 .debug_macro   0x00000000     0x1305 ./source/hello_world.o
 .debug_macro   0x00000000      0x11f ./source/hello_world.o
 .debug_macro   0x00000000       0x27 ./source/hello_world.o
 .debug_macro   0x00000000       0x1c ./source/hello_world.o
 .debug_macro   0x00000000    0x1ffc2 ./source/hello_world.o
 .debug_macro   0x00000000      0x6da ./source/hello_world.o
 .debug_macro   0x00000000       0x16 ./source/hello_world.o
 .debug_macro   0x00000000       0x22 ./source/hello_world.o
 .debug_macro   0x00000000       0x22 ./source/hello_world.o
 .debug_macro   0x00000000       0xde ./source/hello_world.o
 .debug_macro   0x00000000      0x1fb ./source/hello_world.o
 .debug_macro   0x00000000       0x2e ./source/hello_world.o
 .debug_macro   0x00000000       0x2e ./source/hello_world.o
 .debug_macro   0x00000000       0x47 ./source/hello_world.o
 .debug_macro   0x00000000       0x2e ./source/hello_world.o
 .debug_macro   0x00000000       0x10 ./source/hello_world.o
 .debug_macro   0x00000000      0x166 ./source/hello_world.o
 .group         0x00000000        0xc ./source/semihost_hardfault.o
 .text          0x00000000        0x0 ./source/semihost_hardfault.o
 .data          0x00000000        0x0 ./source/semihost_hardfault.o
 .bss           0x00000000        0x0 ./source/semihost_hardfault.o
 .debug_macro   0x00000000      0xb1a ./source/semihost_hardfault.o
 .group         0x00000000        0xc ./drivers/fsl_clock.o
 .group         0x00000000        0xc ./drivers/fsl_clock.o
 .group         0x00000000        0xc ./drivers/fsl_clock.o
 .group         0x00000000        0xc ./drivers/fsl_clock.o
 .group         0x00000000        0xc ./drivers/fsl_clock.o
 .group         0x00000000        0xc ./drivers/fsl_clock.o
 .group         0x00000000        0xc ./drivers/fsl_clock.o
 .group         0x00000000        0xc ./drivers/fsl_clock.o
 .group         0x00000000        0xc ./drivers/fsl_clock.o
 .group         0x00000000        0xc ./drivers/fsl_clock.o
 .group         0x00000000        0xc ./drivers/fsl_clock.o
 .group         0x00000000        0xc ./drivers/fsl_clock.o
 .group         0x00000000        0xc ./drivers/fsl_clock.o
 .group         0x00000000        0xc ./drivers/fsl_clock.o
 .group         0x00000000        0xc ./drivers/fsl_clock.o
 .group         0x00000000        0xc ./drivers/fsl_clock.o
 .group         0x00000000        0xc ./drivers/fsl_clock.o
 .group         0x00000000        0xc ./drivers/fsl_clock.o
 .group         0x00000000        0xc ./drivers/fsl_clock.o
 .group         0x00000000        0xc ./drivers/fsl_clock.o
 .text          0x00000000        0x0 ./drivers/fsl_clock.o
 .data          0x00000000        0x0 ./drivers/fsl_clock.o
 .bss           0x00000000        0x0 ./drivers/fsl_clock.o
 .text.CLOCK_GetRtcFreq
                0x00000000       0x12 ./drivers/fsl_clock.o
 .text.CLOCK_GetPeriphClkFreq
                0x00000000       0xd0 ./drivers/fsl_clock.o
 .text.CLOCK_DeinitExternalClk
                0x00000000       0x1c ./drivers/fsl_clock.o
 .text.CLOCK_DeinitRcOsc24M
                0x00000000       0x24 ./drivers/fsl_clock.o
 .text.CLOCK_GetAhbFreq
                0x00000000       0x24 ./drivers/fsl_clock.o
 .text.CLOCK_GetSemcFreq
                0x00000000       0x5c ./drivers/fsl_clock.o
 .text.CLOCK_GetIpgFreq
                0x00000000       0x24 ./drivers/fsl_clock.o
 .text.CLOCK_GetPerClkFreq
                0x00000000       0x40 ./drivers/fsl_clock.o
 .text.CLOCK_GetFreq
                0x00000000      0x150 ./drivers/fsl_clock.o
 .text.CLOCK_EnableUsbhs0Clock
                0x00000000       0x7c ./drivers/fsl_clock.o
 .text.CLOCK_EnableUsbhs0PhyPllClock
                0x00000000       0x70 ./drivers/fsl_clock.o
 .text.CLOCK_DisableUsbhs0PhyPllClock
                0x00000000       0x30 ./drivers/fsl_clock.o
 .text.CLOCK_InitSysPll
                0x00000000       0x9c ./drivers/fsl_clock.o
 .text.CLOCK_DeinitSysPll
                0x00000000       0x1c ./drivers/fsl_clock.o
 .text.CLOCK_InitUsb1Pll
                0x00000000       0x68 ./drivers/fsl_clock.o
 .text.CLOCK_DeinitUsb1Pll
                0x00000000       0x18 ./drivers/fsl_clock.o
 .text.CLOCK_InitAudioPll
                0x00000000      0x12c ./drivers/fsl_clock.o
 .text.CLOCK_DeinitEnetPll
                0x00000000       0x1c ./drivers/fsl_clock.o
 .text.CLOCK_InitSysPfd
                0x00000000       0x64 ./drivers/fsl_clock.o
 .text.CLOCK_DeinitSysPfd
                0x00000000       0x34 ./drivers/fsl_clock.o
 .text.CLOCK_InitUsb1Pfd
                0x00000000       0x64 ./drivers/fsl_clock.o
 .text.CLOCK_DeinitUsb1Pfd
                0x00000000       0x34 ./drivers/fsl_clock.o
 .text.CLOCK_GetSysPfdFreq
                0x00000000       0xac ./drivers/fsl_clock.o
 .text.CLOCK_GetUsb1PfdFreq
                0x00000000       0xac ./drivers/fsl_clock.o
 .debug_macro   0x00000000      0xb1a ./drivers/fsl_clock.o
 .debug_macro   0x00000000       0x10 ./drivers/fsl_clock.o
 .debug_macro   0x00000000       0x1c ./drivers/fsl_clock.o
 .debug_macro   0x00000000       0x22 ./drivers/fsl_clock.o
 .debug_macro   0x00000000      0x12e ./drivers/fsl_clock.o
 .debug_macro   0x00000000      0x5b3 ./drivers/fsl_clock.o
 .debug_macro   0x00000000       0x22 ./drivers/fsl_clock.o
 .debug_macro   0x00000000       0x10 ./drivers/fsl_clock.o
 .debug_macro   0x00000000       0x4d ./drivers/fsl_clock.o
 .debug_macro   0x00000000       0x1c ./drivers/fsl_clock.o
 .debug_macro   0x00000000       0x22 ./drivers/fsl_clock.o
 .debug_macro   0x00000000      0x101 ./drivers/fsl_clock.o
 .debug_macro   0x00000000     0x1305 ./drivers/fsl_clock.o
 .debug_macro   0x00000000      0x11f ./drivers/fsl_clock.o
 .debug_macro   0x00000000       0x27 ./drivers/fsl_clock.o
 .debug_macro   0x00000000       0x1c ./drivers/fsl_clock.o
 .debug_macro   0x00000000    0x1ffc2 ./drivers/fsl_clock.o
 .debug_macro   0x00000000      0x6da ./drivers/fsl_clock.o
 .debug_macro   0x00000000       0xde ./drivers/fsl_clock.o
 .debug_macro   0x00000000      0x1fb ./drivers/fsl_clock.o
 .group         0x00000000        0xc ./drivers/fsl_common.o
 .group         0x00000000        0xc ./drivers/fsl_common.o
 .group         0x00000000        0xc ./drivers/fsl_common.o
 .group         0x00000000        0xc ./drivers/fsl_common.o
 .group         0x00000000        0xc ./drivers/fsl_common.o
 .group         0x00000000        0xc ./drivers/fsl_common.o
 .group         0x00000000        0xc ./drivers/fsl_common.o
 .group         0x00000000        0xc ./drivers/fsl_common.o
 .group         0x00000000        0xc ./drivers/fsl_common.o
 .group         0x00000000        0xc ./drivers/fsl_common.o
 .group         0x00000000        0xc ./drivers/fsl_common.o
 .group         0x00000000        0xc ./drivers/fsl_common.o
 .group         0x00000000        0xc ./drivers/fsl_common.o
 .group         0x00000000        0xc ./drivers/fsl_common.o
 .group         0x00000000        0xc ./drivers/fsl_common.o
 .group         0x00000000        0xc ./drivers/fsl_common.o
 .group         0x00000000        0xc ./drivers/fsl_common.o
 .group         0x00000000        0xc ./drivers/fsl_common.o
 .group         0x00000000        0xc ./drivers/fsl_common.o
 .group         0x00000000        0xc ./drivers/fsl_common.o
 .text          0x00000000        0x0 ./drivers/fsl_common.o
 .data          0x00000000        0x0 ./drivers/fsl_common.o
 .bss           0x00000000        0x0 ./drivers/fsl_common.o
 .text.SDK_Malloc
                0x00000000       0x70 ./drivers/fsl_common.o
 .text.SDK_Free
                0x00000000       0x3a ./drivers/fsl_common.o
 .text.DelayLoop
                0x00000000       0x20 ./drivers/fsl_common.o
 .rodata.SDK_DelayAtLeastUs.str1.4
                0x00000000       0x4c ./drivers/fsl_common.o
 .text.SDK_DelayAtLeastUs
                0x00000000       0x98 ./drivers/fsl_common.o
 .debug_info    0x00000000      0x2c5 ./drivers/fsl_common.o
 .debug_abbrev  0x00000000      0x153 ./drivers/fsl_common.o
 .debug_aranges
                0x00000000       0x38 ./drivers/fsl_common.o
 .debug_ranges  0x00000000       0x28 ./drivers/fsl_common.o
 .debug_macro   0x00000000      0x109 ./drivers/fsl_common.o
 .debug_macro   0x00000000      0xb1a ./drivers/fsl_common.o
 .debug_macro   0x00000000       0x10 ./drivers/fsl_common.o
 .debug_macro   0x00000000       0x1c ./drivers/fsl_common.o
 .debug_macro   0x00000000       0x22 ./drivers/fsl_common.o
 .debug_macro   0x00000000      0x12e ./drivers/fsl_common.o
 .debug_macro   0x00000000      0x5b3 ./drivers/fsl_common.o
 .debug_macro   0x00000000       0x22 ./drivers/fsl_common.o
 .debug_macro   0x00000000       0x10 ./drivers/fsl_common.o
 .debug_macro   0x00000000       0x4d ./drivers/fsl_common.o
 .debug_macro   0x00000000       0x1c ./drivers/fsl_common.o
 .debug_macro   0x00000000       0x22 ./drivers/fsl_common.o
 .debug_macro   0x00000000      0x101 ./drivers/fsl_common.o
 .debug_macro   0x00000000     0x1305 ./drivers/fsl_common.o
 .debug_macro   0x00000000      0x11f ./drivers/fsl_common.o
 .debug_macro   0x00000000       0x27 ./drivers/fsl_common.o
 .debug_macro   0x00000000       0x1c ./drivers/fsl_common.o
 .debug_macro   0x00000000    0x1ffc2 ./drivers/fsl_common.o
 .debug_macro   0x00000000      0x6da ./drivers/fsl_common.o
 .debug_macro   0x00000000       0xde ./drivers/fsl_common.o
 .debug_macro   0x00000000      0x1fb ./drivers/fsl_common.o
 .debug_line    0x00000000      0x395 ./drivers/fsl_common.o
 .debug_str     0x00000000   0x116ab0 ./drivers/fsl_common.o
 .comment       0x00000000       0x77 ./drivers/fsl_common.o
 .debug_frame   0x00000000       0xac ./drivers/fsl_common.o
 .ARM.attributes
                0x00000000       0x32 ./drivers/fsl_common.o
 .group         0x00000000        0xc ./drivers/fsl_gpio.o
 .group         0x00000000        0xc ./drivers/fsl_gpio.o
 .group         0x00000000        0xc ./drivers/fsl_gpio.o
 .group         0x00000000        0xc ./drivers/fsl_gpio.o
 .group         0x00000000        0xc ./drivers/fsl_gpio.o
 .group         0x00000000        0xc ./drivers/fsl_gpio.o
 .group         0x00000000        0xc ./drivers/fsl_gpio.o
 .group         0x00000000        0xc ./drivers/fsl_gpio.o
 .group         0x00000000        0xc ./drivers/fsl_gpio.o
 .group         0x00000000        0xc ./drivers/fsl_gpio.o
 .group         0x00000000        0xc ./drivers/fsl_gpio.o
 .group         0x00000000        0xc ./drivers/fsl_gpio.o
 .group         0x00000000        0xc ./drivers/fsl_gpio.o
 .group         0x00000000        0xc ./drivers/fsl_gpio.o
 .group         0x00000000        0xc ./drivers/fsl_gpio.o
 .group         0x00000000        0xc ./drivers/fsl_gpio.o
 .group         0x00000000        0xc ./drivers/fsl_gpio.o
 .group         0x00000000        0xc ./drivers/fsl_gpio.o
 .group         0x00000000        0xc ./drivers/fsl_gpio.o
 .group         0x00000000        0xc ./drivers/fsl_gpio.o
 .text          0x00000000        0x0 ./drivers/fsl_gpio.o
 .data          0x00000000        0x0 ./drivers/fsl_gpio.o
 .bss           0x00000000        0x0 ./drivers/fsl_gpio.o
 .rodata.CLOCK_ControlGate.str1.4
                0x00000000       0x20 ./drivers/fsl_gpio.o
 .text.CLOCK_ControlGate
                0x00000000       0x64 ./drivers/fsl_gpio.o
 .text.CLOCK_EnableClock
                0x00000000       0x1e ./drivers/fsl_gpio.o
 .text.GPIO_SetPinInterruptConfig
                0x00000000       0x22 ./drivers/fsl_gpio.o
 .rodata.s_gpioBases
                0x00000000       0x18 ./drivers/fsl_gpio.o
 .rodata.s_gpioClock
                0x00000000        0xc ./drivers/fsl_gpio.o
 .rodata.GPIO_GetInstance.str1.4
                0x00000000       0x34 ./drivers/fsl_gpio.o
 .text.GPIO_GetInstance
                0x00000000       0x4c ./drivers/fsl_gpio.o
 .text.GPIO_PinInit
                0x00000000       0xa4 ./drivers/fsl_gpio.o
 .rodata.GPIO_PinWrite.str1.4
                0x00000000       0x1c ./drivers/fsl_gpio.o
 .text.GPIO_PinWrite
                0x00000000       0x54 ./drivers/fsl_gpio.o
 .text.GPIO_PinSetInterruptConfig
                0x00000000       0xfc ./drivers/fsl_gpio.o
 .debug_info    0x00000000      0xc55 ./drivers/fsl_gpio.o
 .debug_abbrev  0x00000000      0x255 ./drivers/fsl_gpio.o
 .debug_aranges
                0x00000000       0x50 ./drivers/fsl_gpio.o
 .debug_ranges  0x00000000       0x40 ./drivers/fsl_gpio.o
 .debug_macro   0x00000000      0x113 ./drivers/fsl_gpio.o
 .debug_macro   0x00000000      0xb1a ./drivers/fsl_gpio.o
 .debug_macro   0x00000000       0x10 ./drivers/fsl_gpio.o
 .debug_macro   0x00000000       0x1c ./drivers/fsl_gpio.o
 .debug_macro   0x00000000       0x22 ./drivers/fsl_gpio.o
 .debug_macro   0x00000000      0x12e ./drivers/fsl_gpio.o
 .debug_macro   0x00000000      0x5b3 ./drivers/fsl_gpio.o
 .debug_macro   0x00000000       0x22 ./drivers/fsl_gpio.o
 .debug_macro   0x00000000       0x10 ./drivers/fsl_gpio.o
 .debug_macro   0x00000000       0x4d ./drivers/fsl_gpio.o
 .debug_macro   0x00000000       0x1c ./drivers/fsl_gpio.o
 .debug_macro   0x00000000       0x22 ./drivers/fsl_gpio.o
 .debug_macro   0x00000000      0x101 ./drivers/fsl_gpio.o
 .debug_macro   0x00000000     0x1305 ./drivers/fsl_gpio.o
 .debug_macro   0x00000000      0x11f ./drivers/fsl_gpio.o
 .debug_macro   0x00000000       0x27 ./drivers/fsl_gpio.o
 .debug_macro   0x00000000       0x1c ./drivers/fsl_gpio.o
 .debug_macro   0x00000000    0x1ffc2 ./drivers/fsl_gpio.o
 .debug_macro   0x00000000      0x6da ./drivers/fsl_gpio.o
 .debug_macro   0x00000000       0xde ./drivers/fsl_gpio.o
 .debug_macro   0x00000000      0x1fb ./drivers/fsl_gpio.o
 .debug_line    0x00000000      0x4aa ./drivers/fsl_gpio.o
 .debug_str     0x00000000   0x117ace ./drivers/fsl_gpio.o
 .comment       0x00000000       0x77 ./drivers/fsl_gpio.o
 .debug_frame   0x00000000      0x110 ./drivers/fsl_gpio.o
 .ARM.attributes
                0x00000000       0x32 ./drivers/fsl_gpio.o
 .group         0x00000000        0xc ./drivers/fsl_lpuart.o
 .group         0x00000000        0xc ./drivers/fsl_lpuart.o
 .group         0x00000000        0xc ./drivers/fsl_lpuart.o
 .group         0x00000000        0xc ./drivers/fsl_lpuart.o
 .group         0x00000000        0xc ./drivers/fsl_lpuart.o
 .group         0x00000000        0xc ./drivers/fsl_lpuart.o
 .group         0x00000000        0xc ./drivers/fsl_lpuart.o
 .group         0x00000000        0xc ./drivers/fsl_lpuart.o
 .group         0x00000000        0xc ./drivers/fsl_lpuart.o
 .group         0x00000000        0xc ./drivers/fsl_lpuart.o
 .group         0x00000000        0xc ./drivers/fsl_lpuart.o
 .group         0x00000000        0xc ./drivers/fsl_lpuart.o
 .group         0x00000000        0xc ./drivers/fsl_lpuart.o
 .group         0x00000000        0xc ./drivers/fsl_lpuart.o
 .group         0x00000000        0xc ./drivers/fsl_lpuart.o
 .group         0x00000000        0xc ./drivers/fsl_lpuart.o
 .group         0x00000000        0xc ./drivers/fsl_lpuart.o
 .group         0x00000000        0xc ./drivers/fsl_lpuart.o
 .group         0x00000000        0xc ./drivers/fsl_lpuart.o
 .group         0x00000000        0xc ./drivers/fsl_lpuart.o
 .group         0x00000000        0xc ./drivers/fsl_lpuart.o
 .text          0x00000000        0x0 ./drivers/fsl_lpuart.o
 .data          0x00000000        0x0 ./drivers/fsl_lpuart.o
 .bss           0x00000000        0x0 ./drivers/fsl_lpuart.o
 .text.__NVIC_EnableIRQ
                0x00000000       0x3c ./drivers/fsl_lpuart.o
 .text.CLOCK_DisableClock
                0x00000000       0x1e ./drivers/fsl_lpuart.o
 .text.EnableIRQ
                0x00000000       0x2c ./drivers/fsl_lpuart.o
 .rodata.s_lpuartIRQ
                0x00000000       0x12 ./drivers/fsl_lpuart.o
 .rodata.LPUART_TransferGetRxRingBufferLength.str1.4
                0x00000000       0x23 ./drivers/fsl_lpuart.o
 .text.LPUART_TransferGetRxRingBufferLength
                0x00000000       0x54 ./drivers/fsl_lpuart.o
 .rodata.LPUART_TransferIsRxRingBufferFull.str1.4
                0x00000000       0x23 ./drivers/fsl_lpuart.o
 .text.LPUART_TransferIsRxRingBufferFull
                0x00000000       0x44 ./drivers/fsl_lpuart.o
 .rodata.LPUART_WriteNonBlocking.str1.4
                0x00000000       0x21 ./drivers/fsl_lpuart.o
 .text.LPUART_WriteNonBlocking
                0x00000000       0x48 ./drivers/fsl_lpuart.o
 .rodata.LPUART_ReadNonBlocking.str1.4
                0x00000000       0x21 ./drivers/fsl_lpuart.o
 .text.LPUART_ReadNonBlocking
                0x00000000       0x98 ./drivers/fsl_lpuart.o
 .text.LPUART_Deinit
                0x00000000       0x70 ./drivers/fsl_lpuart.o
 .rodata.LPUART_SetBaudRate.str1.4
                0x00000000       0x26 ./drivers/fsl_lpuart.o
 .text.LPUART_SetBaudRate
                0x00000000      0x154 ./drivers/fsl_lpuart.o
 .text.LPUART_EnableInterrupts
                0x00000000       0x52 ./drivers/fsl_lpuart.o
 .text.LPUART_DisableInterrupts
                0x00000000       0x58 ./drivers/fsl_lpuart.o
 .text.LPUART_GetEnabledInterrupts
                0x00000000       0x44 ./drivers/fsl_lpuart.o
 .text.LPUART_GetStatusFlags
                0x00000000       0x2c ./drivers/fsl_lpuart.o
 .text.LPUART_ClearStatusFlags
                0x00000000       0xa4 ./drivers/fsl_lpuart.o
 .rodata.LPUART_ReadBlocking.str1.4
                0x00000000       0x21 ./drivers/fsl_lpuart.o
 .text.LPUART_ReadBlocking
                0x00000000      0x160 ./drivers/fsl_lpuart.o
 .rodata.LPUART_TransferCreateHandle.str1.4
                0x00000000       0x24 ./drivers/fsl_lpuart.o
 .text.LPUART_TransferCreateHandle
                0x00000000       0xc0 ./drivers/fsl_lpuart.o
 .rodata.LPUART_TransferStartRingBuffer.str1.4
                0x00000000       0x4c ./drivers/fsl_lpuart.o
 .text.LPUART_TransferStartRingBuffer
                0x00000000       0x58 ./drivers/fsl_lpuart.o
 .rodata.LPUART_TransferStopRingBuffer.str1.4
                0x00000000       0x24 ./drivers/fsl_lpuart.o
 .text.LPUART_TransferStopRingBuffer
                0x00000000       0x50 ./drivers/fsl_lpuart.o
 .rodata.LPUART_TransferSendNonBlocking.str1.4
                0x00000000       0x9a ./drivers/fsl_lpuart.o
 .text.LPUART_TransferSendNonBlocking
                0x00000000       0x9c ./drivers/fsl_lpuart.o
 .rodata.LPUART_TransferAbortSend.str1.4
                0x00000000       0x24 ./drivers/fsl_lpuart.o
 .text.LPUART_TransferAbortSend
                0x00000000       0x3c ./drivers/fsl_lpuart.o
 .rodata.LPUART_TransferGetSendCount.str1.4
                0x00000000       0x47 ./drivers/fsl_lpuart.o
 .text.LPUART_TransferGetSendCount
                0x00000000       0x6c ./drivers/fsl_lpuart.o
 .rodata.LPUART_TransferReceiveNonBlocking.str1.4
                0x00000000       0x9a ./drivers/fsl_lpuart.o
 .text.LPUART_TransferReceiveNonBlocking
                0x00000000      0x198 ./drivers/fsl_lpuart.o
 .rodata.LPUART_TransferAbortReceive.str1.4
                0x00000000       0x24 ./drivers/fsl_lpuart.o
 .text.LPUART_TransferAbortReceive
                0x00000000       0x44 ./drivers/fsl_lpuart.o
 .rodata.LPUART_TransferGetReceiveCount.str1.4
                0x00000000       0x47 ./drivers/fsl_lpuart.o
 .text.LPUART_TransferGetReceiveCount
                0x00000000       0x60 ./drivers/fsl_lpuart.o
 .rodata.LPUART_TransferHandleIRQ.str1.4
                0x00000000       0x24 ./drivers/fsl_lpuart.o
 .text.LPUART_TransferHandleIRQ
                0x00000000      0x3b8 ./drivers/fsl_lpuart.o
 .text.LPUART_TransferHandleErrorIRQ
                0x00000000       0x16 ./drivers/fsl_lpuart.o
 .debug_macro   0x00000000      0xb1a ./drivers/fsl_lpuart.o
 .debug_macro   0x00000000       0x10 ./drivers/fsl_lpuart.o
 .debug_macro   0x00000000       0x1c ./drivers/fsl_lpuart.o
 .debug_macro   0x00000000       0x22 ./drivers/fsl_lpuart.o
 .debug_macro   0x00000000      0x12e ./drivers/fsl_lpuart.o
 .debug_macro   0x00000000      0x5b3 ./drivers/fsl_lpuart.o
 .debug_macro   0x00000000       0x22 ./drivers/fsl_lpuart.o
 .debug_macro   0x00000000       0x10 ./drivers/fsl_lpuart.o
 .debug_macro   0x00000000       0x4d ./drivers/fsl_lpuart.o
 .debug_macro   0x00000000       0x1c ./drivers/fsl_lpuart.o
 .debug_macro   0x00000000       0x22 ./drivers/fsl_lpuart.o
 .debug_macro   0x00000000      0x101 ./drivers/fsl_lpuart.o
 .debug_macro   0x00000000     0x1305 ./drivers/fsl_lpuart.o
 .debug_macro   0x00000000      0x11f ./drivers/fsl_lpuart.o
 .debug_macro   0x00000000       0x27 ./drivers/fsl_lpuart.o
 .debug_macro   0x00000000       0x1c ./drivers/fsl_lpuart.o
 .debug_macro   0x00000000    0x1ffc2 ./drivers/fsl_lpuart.o
 .debug_macro   0x00000000      0x6da ./drivers/fsl_lpuart.o
 .debug_macro   0x00000000       0xde ./drivers/fsl_lpuart.o
 .debug_macro   0x00000000      0x1fb ./drivers/fsl_lpuart.o
 .group         0x00000000        0xc ./device/system_MIMXRT1021.o
 .group         0x00000000        0xc ./device/system_MIMXRT1021.o
 .group         0x00000000        0xc ./device/system_MIMXRT1021.o
 .group         0x00000000        0xc ./device/system_MIMXRT1021.o
 .group         0x00000000        0xc ./device/system_MIMXRT1021.o
 .group         0x00000000        0xc ./device/system_MIMXRT1021.o
 .group         0x00000000        0xc ./device/system_MIMXRT1021.o
 .group         0x00000000        0xc ./device/system_MIMXRT1021.o
 .group         0x00000000        0xc ./device/system_MIMXRT1021.o
 .group         0x00000000        0xc ./device/system_MIMXRT1021.o
 .group         0x00000000        0xc ./device/system_MIMXRT1021.o
 .group         0x00000000        0xc ./device/system_MIMXRT1021.o
 .group         0x00000000        0xc ./device/system_MIMXRT1021.o
 .group         0x00000000        0xc ./device/system_MIMXRT1021.o
 .group         0x00000000        0xc ./device/system_MIMXRT1021.o
 .text          0x00000000        0x0 ./device/system_MIMXRT1021.o
 .data          0x00000000        0x0 ./device/system_MIMXRT1021.o
 .bss           0x00000000        0x0 ./device/system_MIMXRT1021.o
 .text.SystemCoreClockUpdate
                0x00000000      0x1a0 ./device/system_MIMXRT1021.o
 .debug_macro   0x00000000      0xb1a ./device/system_MIMXRT1021.o
 .debug_macro   0x00000000       0x10 ./device/system_MIMXRT1021.o
 .debug_macro   0x00000000      0x12e ./device/system_MIMXRT1021.o
 .debug_macro   0x00000000      0x5b3 ./device/system_MIMXRT1021.o
 .debug_macro   0x00000000       0x10 ./device/system_MIMXRT1021.o
 .debug_macro   0x00000000       0x4d ./device/system_MIMXRT1021.o
 .debug_macro   0x00000000       0x1c ./device/system_MIMXRT1021.o
 .debug_macro   0x00000000       0x22 ./device/system_MIMXRT1021.o
 .debug_macro   0x00000000      0x101 ./device/system_MIMXRT1021.o
 .debug_macro   0x00000000     0x1305 ./device/system_MIMXRT1021.o
 .debug_macro   0x00000000      0x11f ./device/system_MIMXRT1021.o
 .debug_macro   0x00000000       0x27 ./device/system_MIMXRT1021.o
 .debug_macro   0x00000000       0x1c ./device/system_MIMXRT1021.o
 .debug_macro   0x00000000    0x1ffc2 ./device/system_MIMXRT1021.o
 .debug_macro   0x00000000      0x6da ./device/system_MIMXRT1021.o
 .group         0x00000000        0xc ./component/uart/lpuart_adapter.o
 .group         0x00000000        0xc ./component/uart/lpuart_adapter.o
 .group         0x00000000        0xc ./component/uart/lpuart_adapter.o
 .group         0x00000000        0xc ./component/uart/lpuart_adapter.o
 .group         0x00000000        0xc ./component/uart/lpuart_adapter.o
 .group         0x00000000        0xc ./component/uart/lpuart_adapter.o
 .group         0x00000000        0xc ./component/uart/lpuart_adapter.o
 .group         0x00000000        0xc ./component/uart/lpuart_adapter.o
 .group         0x00000000        0xc ./component/uart/lpuart_adapter.o
 .group         0x00000000        0xc ./component/uart/lpuart_adapter.o
 .group         0x00000000        0xc ./component/uart/lpuart_adapter.o
 .group         0x00000000        0xc ./component/uart/lpuart_adapter.o
 .group         0x00000000        0xc ./component/uart/lpuart_adapter.o
 .group         0x00000000        0xc ./component/uart/lpuart_adapter.o
 .group         0x00000000        0xc ./component/uart/lpuart_adapter.o
 .group         0x00000000        0xc ./component/uart/lpuart_adapter.o
 .group         0x00000000        0xc ./component/uart/lpuart_adapter.o
 .group         0x00000000        0xc ./component/uart/lpuart_adapter.o
 .group         0x00000000        0xc ./component/uart/lpuart_adapter.o
 .group         0x00000000        0xc ./component/uart/lpuart_adapter.o
 .group         0x00000000        0xc ./component/uart/lpuart_adapter.o
 .group         0x00000000        0xc ./component/uart/lpuart_adapter.o
 .text          0x00000000        0x0 ./component/uart/lpuart_adapter.o
 .data          0x00000000        0x0 ./component/uart/lpuart_adapter.o
 .bss           0x00000000        0x0 ./component/uart/lpuart_adapter.o
 .rodata.HAL_UartDeinit.str1.4
                0x00000000       0x1f ./component/uart/lpuart_adapter.o
 .text.HAL_UartDeinit
                0x00000000       0x3c ./component/uart/lpuart_adapter.o
 .rodata.HAL_UartReceiveBlocking.str1.4
                0x00000000       0x5f ./component/uart/lpuart_adapter.o
 .text.HAL_UartReceiveBlocking
                0x00000000       0x6c ./component/uart/lpuart_adapter.o
 .rodata.HAL_UartEnterLowpower.str1.4
                0x00000000       0x1f ./component/uart/lpuart_adapter.o
 .text.HAL_UartEnterLowpower
                0x00000000       0x24 ./component/uart/lpuart_adapter.o
 .text.HAL_UartExitLowpower
                0x00000000       0x16 ./component/uart/lpuart_adapter.o
 .debug_macro   0x00000000      0xb1a ./component/uart/lpuart_adapter.o
 .debug_macro   0x00000000       0x10 ./component/uart/lpuart_adapter.o
 .debug_macro   0x00000000       0x1c ./component/uart/lpuart_adapter.o
 .debug_macro   0x00000000       0x22 ./component/uart/lpuart_adapter.o
 .debug_macro   0x00000000      0x12e ./component/uart/lpuart_adapter.o
 .debug_macro   0x00000000      0x5b3 ./component/uart/lpuart_adapter.o
 .debug_macro   0x00000000       0x22 ./component/uart/lpuart_adapter.o
 .debug_macro   0x00000000       0x10 ./component/uart/lpuart_adapter.o
 .debug_macro   0x00000000       0x4d ./component/uart/lpuart_adapter.o
 .debug_macro   0x00000000       0x1c ./component/uart/lpuart_adapter.o
 .debug_macro   0x00000000       0x22 ./component/uart/lpuart_adapter.o
 .debug_macro   0x00000000      0x101 ./component/uart/lpuart_adapter.o
 .debug_macro   0x00000000     0x1305 ./component/uart/lpuart_adapter.o
 .debug_macro   0x00000000      0x11f ./component/uart/lpuart_adapter.o
 .debug_macro   0x00000000       0x27 ./component/uart/lpuart_adapter.o
 .debug_macro   0x00000000       0x1c ./component/uart/lpuart_adapter.o
 .debug_macro   0x00000000    0x1ffc2 ./component/uart/lpuart_adapter.o
 .debug_macro   0x00000000      0x6da ./component/uart/lpuart_adapter.o
 .debug_macro   0x00000000       0xde ./component/uart/lpuart_adapter.o
 .debug_macro   0x00000000      0x1fb ./component/uart/lpuart_adapter.o
 .group         0x00000000        0xc ./component/serial_manager/serial_manager.o
 .group         0x00000000        0xc ./component/serial_manager/serial_manager.o
 .group         0x00000000        0xc ./component/serial_manager/serial_manager.o
 .group         0x00000000        0xc ./component/serial_manager/serial_manager.o
 .group         0x00000000        0xc ./component/serial_manager/serial_manager.o
 .group         0x00000000        0xc ./component/serial_manager/serial_manager.o
 .group         0x00000000        0xc ./component/serial_manager/serial_manager.o
 .group         0x00000000        0xc ./component/serial_manager/serial_manager.o
 .group         0x00000000        0xc ./component/serial_manager/serial_manager.o
 .group         0x00000000        0xc ./component/serial_manager/serial_manager.o
 .group         0x00000000        0xc ./component/serial_manager/serial_manager.o
 .group         0x00000000        0xc ./component/serial_manager/serial_manager.o
 .group         0x00000000        0xc ./component/serial_manager/serial_manager.o
 .group         0x00000000        0xc ./component/serial_manager/serial_manager.o
 .group         0x00000000        0xc ./component/serial_manager/serial_manager.o
 .group         0x00000000        0xc ./component/serial_manager/serial_manager.o
 .group         0x00000000        0xc ./component/serial_manager/serial_manager.o
 .group         0x00000000        0xc ./component/serial_manager/serial_manager.o
 .group         0x00000000        0xc ./component/serial_manager/serial_manager.o
 .group         0x00000000        0xc ./component/serial_manager/serial_manager.o
 .group         0x00000000        0xc ./component/serial_manager/serial_manager.o
 .group         0x00000000        0xc ./component/serial_manager/serial_manager.o
 .group         0x00000000        0xc ./component/serial_manager/serial_manager.o
 .text          0x00000000        0x0 ./component/serial_manager/serial_manager.o
 .data          0x00000000        0x0 ./component/serial_manager/serial_manager.o
 .bss           0x00000000        0x0 ./component/serial_manager/serial_manager.o
 .text.SerialManager_StartReading
                0x00000000       0x38 ./component/serial_manager/serial_manager.o
 .rodata.SerialManager_Read.str1.4
                0x00000000       0x83 ./component/serial_manager/serial_manager.o
 .text.SerialManager_Read
                0x00000000       0x6c ./component/serial_manager/serial_manager.o
 .rodata.SerialManager_Deinit.str1.4
                0x00000000       0x25 ./component/serial_manager/serial_manager.o
 .text.SerialManager_Deinit
                0x00000000       0x64 ./component/serial_manager/serial_manager.o
 .rodata.SerialManager_CloseWriteHandle.str1.4
                0x00000000       0x48 ./component/serial_manager/serial_manager.o
 .text.SerialManager_CloseWriteHandle
                0x00000000       0x64 ./component/serial_manager/serial_manager.o
 .rodata.SerialManager_CloseReadHandle.str1.4
                0x00000000       0x84 ./component/serial_manager/serial_manager.o
 .text.SerialManager_CloseReadHandle
                0x00000000       0x64 ./component/serial_manager/serial_manager.o
 .text.SerialManager_ReadBlocking
                0x00000000       0x20 ./component/serial_manager/serial_manager.o
 .rodata.SerialManager_EnterLowpower.str1.4
                0x00000000       0x26 ./component/serial_manager/serial_manager.o
 .text.SerialManager_EnterLowpower
                0x00000000       0x48 ./component/serial_manager/serial_manager.o
 .rodata.SerialManager_ExitLowpower.str1.4
                0x00000000       0x26 ./component/serial_manager/serial_manager.o
 .text.SerialManager_ExitLowpower
                0x00000000       0x48 ./component/serial_manager/serial_manager.o
 .debug_macro   0x00000000      0xb1a ./component/serial_manager/serial_manager.o
 .debug_macro   0x00000000       0x10 ./component/serial_manager/serial_manager.o
 .debug_macro   0x00000000       0x1c ./component/serial_manager/serial_manager.o
 .debug_macro   0x00000000       0x22 ./component/serial_manager/serial_manager.o
 .debug_macro   0x00000000      0x12e ./component/serial_manager/serial_manager.o
 .debug_macro   0x00000000      0x5b3 ./component/serial_manager/serial_manager.o
 .debug_macro   0x00000000       0x22 ./component/serial_manager/serial_manager.o
 .debug_macro   0x00000000       0x10 ./component/serial_manager/serial_manager.o
 .debug_macro   0x00000000       0x4d ./component/serial_manager/serial_manager.o
 .debug_macro   0x00000000       0x1c ./component/serial_manager/serial_manager.o
 .debug_macro   0x00000000       0x22 ./component/serial_manager/serial_manager.o
 .debug_macro   0x00000000      0x101 ./component/serial_manager/serial_manager.o
 .debug_macro   0x00000000     0x1305 ./component/serial_manager/serial_manager.o
 .debug_macro   0x00000000      0x11f ./component/serial_manager/serial_manager.o
 .debug_macro   0x00000000       0x27 ./component/serial_manager/serial_manager.o
 .debug_macro   0x00000000       0x1c ./component/serial_manager/serial_manager.o
 .debug_macro   0x00000000    0x1ffc2 ./component/serial_manager/serial_manager.o
 .debug_macro   0x00000000      0x6da ./component/serial_manager/serial_manager.o
 .debug_macro   0x00000000       0xde ./component/serial_manager/serial_manager.o
 .debug_macro   0x00000000      0x1fb ./component/serial_manager/serial_manager.o
 .debug_macro   0x00000000       0x2e ./component/serial_manager/serial_manager.o
 .debug_macro   0x00000000       0x2e ./component/serial_manager/serial_manager.o
 .debug_macro   0x00000000       0x47 ./component/serial_manager/serial_manager.o
 .group         0x00000000        0xc ./component/serial_manager/serial_port_uart.o
 .group         0x00000000        0xc ./component/serial_manager/serial_port_uart.o
 .group         0x00000000        0xc ./component/serial_manager/serial_port_uart.o
 .group         0x00000000        0xc ./component/serial_manager/serial_port_uart.o
 .group         0x00000000        0xc ./component/serial_manager/serial_port_uart.o
 .group         0x00000000        0xc ./component/serial_manager/serial_port_uart.o
 .group         0x00000000        0xc ./component/serial_manager/serial_port_uart.o
 .group         0x00000000        0xc ./component/serial_manager/serial_port_uart.o
 .group         0x00000000        0xc ./component/serial_manager/serial_port_uart.o
 .group         0x00000000        0xc ./component/serial_manager/serial_port_uart.o
 .group         0x00000000        0xc ./component/serial_manager/serial_port_uart.o
 .group         0x00000000        0xc ./component/serial_manager/serial_port_uart.o
 .group         0x00000000        0xc ./component/serial_manager/serial_port_uart.o
 .group         0x00000000        0xc ./component/serial_manager/serial_port_uart.o
 .group         0x00000000        0xc ./component/serial_manager/serial_port_uart.o
 .group         0x00000000        0xc ./component/serial_manager/serial_port_uart.o
 .group         0x00000000        0xc ./component/serial_manager/serial_port_uart.o
 .group         0x00000000        0xc ./component/serial_manager/serial_port_uart.o
 .group         0x00000000        0xc ./component/serial_manager/serial_port_uart.o
 .group         0x00000000        0xc ./component/serial_manager/serial_port_uart.o
 .group         0x00000000        0xc ./component/serial_manager/serial_port_uart.o
 .group         0x00000000        0xc ./component/serial_manager/serial_port_uart.o
 .group         0x00000000        0xc ./component/serial_manager/serial_port_uart.o
 .text          0x00000000        0x0 ./component/serial_manager/serial_port_uart.o
 .data          0x00000000        0x0 ./component/serial_manager/serial_port_uart.o
 .bss           0x00000000        0x0 ./component/serial_manager/serial_port_uart.o
 .rodata.Serial_UartDeinit.str1.4
                0x00000000       0x27 ./component/serial_manager/serial_port_uart.o
 .text.Serial_UartDeinit
                0x00000000       0x30 ./component/serial_manager/serial_port_uart.o
 .rodata.Serial_UartRead.str1.4
                0x00000000       0x6d ./component/serial_manager/serial_port_uart.o
 .text.Serial_UartRead
                0x00000000       0x58 ./component/serial_manager/serial_port_uart.o
 .rodata.Serial_UartEnterLowpower.str1.4
                0x00000000       0x27 ./component/serial_manager/serial_port_uart.o
 .text.Serial_UartEnterLowpower
                0x00000000       0x3c ./component/serial_manager/serial_port_uart.o
 .rodata.Serial_UartExitLowpower.str1.4
                0x00000000       0x27 ./component/serial_manager/serial_port_uart.o
 .text.Serial_UartExitLowpower
                0x00000000       0x3c ./component/serial_manager/serial_port_uart.o
 .debug_macro   0x00000000      0xb1a ./component/serial_manager/serial_port_uart.o
 .debug_macro   0x00000000       0x10 ./component/serial_manager/serial_port_uart.o
 .debug_macro   0x00000000       0x1c ./component/serial_manager/serial_port_uart.o
 .debug_macro   0x00000000       0x22 ./component/serial_manager/serial_port_uart.o
 .debug_macro   0x00000000      0x12e ./component/serial_manager/serial_port_uart.o
 .debug_macro   0x00000000      0x5b3 ./component/serial_manager/serial_port_uart.o
 .debug_macro   0x00000000       0x22 ./component/serial_manager/serial_port_uart.o
 .debug_macro   0x00000000       0x10 ./component/serial_manager/serial_port_uart.o
 .debug_macro   0x00000000       0x4d ./component/serial_manager/serial_port_uart.o
 .debug_macro   0x00000000       0x1c ./component/serial_manager/serial_port_uart.o
 .debug_macro   0x00000000       0x22 ./component/serial_manager/serial_port_uart.o
 .debug_macro   0x00000000      0x101 ./component/serial_manager/serial_port_uart.o
 .debug_macro   0x00000000     0x1305 ./component/serial_manager/serial_port_uart.o
 .debug_macro   0x00000000      0x11f ./component/serial_manager/serial_port_uart.o
 .debug_macro   0x00000000       0x27 ./component/serial_manager/serial_port_uart.o
 .debug_macro   0x00000000       0x1c ./component/serial_manager/serial_port_uart.o
 .debug_macro   0x00000000    0x1ffc2 ./component/serial_manager/serial_port_uart.o
 .debug_macro   0x00000000      0x6da ./component/serial_manager/serial_port_uart.o
 .debug_macro   0x00000000       0xde ./component/serial_manager/serial_port_uart.o
 .debug_macro   0x00000000      0x1fb ./component/serial_manager/serial_port_uart.o
 .debug_macro   0x00000000       0x2e ./component/serial_manager/serial_port_uart.o
 .debug_macro   0x00000000       0x2e ./component/serial_manager/serial_port_uart.o
 .debug_macro   0x00000000       0x47 ./component/serial_manager/serial_port_uart.o
 .group         0x00000000        0xc ./component/lists/generic_list.o
 .group         0x00000000        0xc ./component/lists/generic_list.o
 .group         0x00000000        0xc ./component/lists/generic_list.o
 .group         0x00000000        0xc ./component/lists/generic_list.o
 .group         0x00000000        0xc ./component/lists/generic_list.o
 .group         0x00000000        0xc ./component/lists/generic_list.o
 .group         0x00000000        0xc ./component/lists/generic_list.o
 .group         0x00000000        0xc ./component/lists/generic_list.o
 .group         0x00000000        0xc ./component/lists/generic_list.o
 .group         0x00000000        0xc ./component/lists/generic_list.o
 .group         0x00000000        0xc ./component/lists/generic_list.o
 .group         0x00000000        0xc ./component/lists/generic_list.o
 .group         0x00000000        0xc ./component/lists/generic_list.o
 .group         0x00000000        0xc ./component/lists/generic_list.o
 .group         0x00000000        0xc ./component/lists/generic_list.o
 .group         0x00000000        0xc ./component/lists/generic_list.o
 .group         0x00000000        0xc ./component/lists/generic_list.o
 .group         0x00000000        0xc ./component/lists/generic_list.o
 .group         0x00000000        0xc ./component/lists/generic_list.o
 .group         0x00000000        0xc ./component/lists/generic_list.o
 .text          0x00000000        0x0 ./component/lists/generic_list.o
 .data          0x00000000        0x0 ./component/lists/generic_list.o
 .bss           0x00000000        0x0 ./component/lists/generic_list.o
 .text.DisableGlobalIRQ
                0x00000000       0x20 ./component/lists/generic_list.o
 .text.EnableGlobalIRQ
                0x00000000       0x1e ./component/lists/generic_list.o
 .text.LIST_Error_Check
                0x00000000       0x5a ./component/lists/generic_list.o
 .text.LIST_Init
                0x00000000       0x30 ./component/lists/generic_list.o
 .text.LIST_GetList
                0x00000000       0x18 ./component/lists/generic_list.o
 .text.LIST_AddTail
                0x00000000       0x74 ./component/lists/generic_list.o
 .text.LIST_AddHead
                0x00000000       0x74 ./component/lists/generic_list.o
 .text.LIST_RemoveHead
                0x00000000       0x6a ./component/lists/generic_list.o
 .text.LIST_GetHead
                0x00000000       0x18 ./component/lists/generic_list.o
 .text.LIST_GetNext
                0x00000000       0x18 ./component/lists/generic_list.o
 .text.LIST_GetPrev
                0x00000000       0x18 ./component/lists/generic_list.o
 .text.LIST_RemoveElement
                0x00000000       0x8c ./component/lists/generic_list.o
 .text.LIST_AddPrevElement
                0x00000000       0x8c ./component/lists/generic_list.o
 .text.LIST_GetSize
                0x00000000       0x18 ./component/lists/generic_list.o
 .text.LIST_GetAvailableSize
                0x00000000       0x20 ./component/lists/generic_list.o
 .debug_info    0x00000000      0x60b ./component/lists/generic_list.o
 .debug_abbrev  0x00000000      0x2c3 ./component/lists/generic_list.o
 .debug_aranges
                0x00000000       0x90 ./component/lists/generic_list.o
 .debug_ranges  0x00000000       0x80 ./component/lists/generic_list.o
 .debug_macro   0x00000000      0x10d ./component/lists/generic_list.o
 .debug_macro   0x00000000      0xb1a ./component/lists/generic_list.o
 .debug_macro   0x00000000       0x10 ./component/lists/generic_list.o
 .debug_macro   0x00000000       0x1c ./component/lists/generic_list.o
 .debug_macro   0x00000000       0x22 ./component/lists/generic_list.o
 .debug_macro   0x00000000      0x12e ./component/lists/generic_list.o
 .debug_macro   0x00000000      0x5b3 ./component/lists/generic_list.o
 .debug_macro   0x00000000       0x22 ./component/lists/generic_list.o
 .debug_macro   0x00000000       0x10 ./component/lists/generic_list.o
 .debug_macro   0x00000000       0x4d ./component/lists/generic_list.o
 .debug_macro   0x00000000       0x1c ./component/lists/generic_list.o
 .debug_macro   0x00000000       0x22 ./component/lists/generic_list.o
 .debug_macro   0x00000000      0x101 ./component/lists/generic_list.o
 .debug_macro   0x00000000     0x1305 ./component/lists/generic_list.o
 .debug_macro   0x00000000      0x11f ./component/lists/generic_list.o
 .debug_macro   0x00000000       0x27 ./component/lists/generic_list.o
 .debug_macro   0x00000000       0x1c ./component/lists/generic_list.o
 .debug_macro   0x00000000    0x1ffc2 ./component/lists/generic_list.o
 .debug_macro   0x00000000      0x6da ./component/lists/generic_list.o
 .debug_macro   0x00000000       0xde ./component/lists/generic_list.o
 .debug_macro   0x00000000      0x1fb ./component/lists/generic_list.o
 .debug_line    0x00000000      0x61b ./component/lists/generic_list.o
 .debug_str     0x00000000   0x116bcd ./component/lists/generic_list.o
 .comment       0x00000000       0x77 ./component/lists/generic_list.o
 .debug_frame   0x00000000      0x254 ./component/lists/generic_list.o
 .ARM.attributes
                0x00000000       0x32 ./component/lists/generic_list.o
 .group         0x00000000        0xc ./board/board.o
 .group         0x00000000        0xc ./board/board.o
 .group         0x00000000        0xc ./board/board.o
 .group         0x00000000        0xc ./board/board.o
 .group         0x00000000        0xc ./board/board.o
 .group         0x00000000        0xc ./board/board.o
 .group         0x00000000        0xc ./board/board.o
 .group         0x00000000        0xc ./board/board.o
 .group         0x00000000        0xc ./board/board.o
 .group         0x00000000        0xc ./board/board.o
 .group         0x00000000        0xc ./board/board.o
 .group         0x00000000        0xc ./board/board.o
 .group         0x00000000        0xc ./board/board.o
 .group         0x00000000        0xc ./board/board.o
 .group         0x00000000        0xc ./board/board.o
 .group         0x00000000        0xc ./board/board.o
 .group         0x00000000        0xc ./board/board.o
 .group         0x00000000        0xc ./board/board.o
 .group         0x00000000        0xc ./board/board.o
 .group         0x00000000        0xc ./board/board.o
 .group         0x00000000        0xc ./board/board.o
 .group         0x00000000        0xc ./board/board.o
 .group         0x00000000        0xc ./board/board.o
 .group         0x00000000        0xc ./board/board.o
 .group         0x00000000        0xc ./board/board.o
 .group         0x00000000        0xc ./board/board.o
 .group         0x00000000        0xc ./board/board.o
 .group         0x00000000        0xc ./board/board.o
 .text          0x00000000        0x0 ./board/board.o
 .data          0x00000000        0x0 ./board/board.o
 .bss           0x00000000        0x0 ./board/board.o
 .debug_macro   0x00000000      0xb1a ./board/board.o
 .debug_macro   0x00000000       0x10 ./board/board.o
 .debug_macro   0x00000000       0x1c ./board/board.o
 .debug_macro   0x00000000       0x22 ./board/board.o
 .debug_macro   0x00000000      0x12e ./board/board.o
 .debug_macro   0x00000000      0x5b3 ./board/board.o
 .debug_macro   0x00000000       0x22 ./board/board.o
 .debug_macro   0x00000000       0x10 ./board/board.o
 .debug_macro   0x00000000       0x4d ./board/board.o
 .debug_macro   0x00000000       0x1c ./board/board.o
 .debug_macro   0x00000000       0x22 ./board/board.o
 .debug_macro   0x00000000      0x101 ./board/board.o
 .debug_macro   0x00000000     0x1305 ./board/board.o
 .debug_macro   0x00000000      0x11f ./board/board.o
 .debug_macro   0x00000000       0x27 ./board/board.o
 .debug_macro   0x00000000       0x1c ./board/board.o
 .debug_macro   0x00000000    0x1ffc2 ./board/board.o
 .debug_macro   0x00000000      0x6da ./board/board.o
 .debug_macro   0x00000000       0xde ./board/board.o
 .debug_macro   0x00000000      0x1fb ./board/board.o
 .debug_macro   0x00000000       0x2e ./board/board.o
 .debug_macro   0x00000000       0x2e ./board/board.o
 .debug_macro   0x00000000       0x47 ./board/board.o
 .debug_macro   0x00000000       0x2e ./board/board.o
 .debug_macro   0x00000000      0x10c ./board/board.o
 .debug_macro   0x00000000       0x10 ./board/board.o
 .debug_macro   0x00000000      0x166 ./board/board.o
 .group         0x00000000        0xc ./board/clock_config.o
 .group         0x00000000        0xc ./board/clock_config.o
 .group         0x00000000        0xc ./board/clock_config.o
 .group         0x00000000        0xc ./board/clock_config.o
 .group         0x00000000        0xc ./board/clock_config.o
 .group         0x00000000        0xc ./board/clock_config.o
 .group         0x00000000        0xc ./board/clock_config.o
 .group         0x00000000        0xc ./board/clock_config.o
 .group         0x00000000        0xc ./board/clock_config.o
 .group         0x00000000        0xc ./board/clock_config.o
 .group         0x00000000        0xc ./board/clock_config.o
 .group         0x00000000        0xc ./board/clock_config.o
 .group         0x00000000        0xc ./board/clock_config.o
 .group         0x00000000        0xc ./board/clock_config.o
 .group         0x00000000        0xc ./board/clock_config.o
 .group         0x00000000        0xc ./board/clock_config.o
 .group         0x00000000        0xc ./board/clock_config.o
 .group         0x00000000        0xc ./board/clock_config.o
 .group         0x00000000        0xc ./board/clock_config.o
 .group         0x00000000        0xc ./board/clock_config.o
 .group         0x00000000        0xc ./board/clock_config.o
 .group         0x00000000        0xc ./board/clock_config.o
 .text          0x00000000        0x0 ./board/clock_config.o
 .data          0x00000000        0x0 ./board/clock_config.o
 .bss           0x00000000        0x0 ./board/clock_config.o
 .rodata.sysPllConfig_BOARD_BootClockRUN
                0x00000000       0x14 ./board/clock_config.o
 .rodata.usb1PllConfig_BOARD_BootClockRUN
                0x00000000        0x2 ./board/clock_config.o
 .debug_macro   0x00000000      0xb1a ./board/clock_config.o
 .debug_macro   0x00000000       0x10 ./board/clock_config.o
 .debug_macro   0x00000000       0x1c ./board/clock_config.o
 .debug_macro   0x00000000       0x22 ./board/clock_config.o
 .debug_macro   0x00000000      0x12e ./board/clock_config.o
 .debug_macro   0x00000000      0x5b3 ./board/clock_config.o
 .debug_macro   0x00000000       0x22 ./board/clock_config.o
 .debug_macro   0x00000000       0x10 ./board/clock_config.o
 .debug_macro   0x00000000       0x4d ./board/clock_config.o
 .debug_macro   0x00000000       0x1c ./board/clock_config.o
 .debug_macro   0x00000000       0x22 ./board/clock_config.o
 .debug_macro   0x00000000      0x101 ./board/clock_config.o
 .debug_macro   0x00000000     0x1305 ./board/clock_config.o
 .debug_macro   0x00000000      0x11f ./board/clock_config.o
 .debug_macro   0x00000000       0x27 ./board/clock_config.o
 .debug_macro   0x00000000       0x1c ./board/clock_config.o
 .debug_macro   0x00000000    0x1ffc2 ./board/clock_config.o
 .debug_macro   0x00000000      0x6da ./board/clock_config.o
 .debug_macro   0x00000000       0xde ./board/clock_config.o
 .debug_macro   0x00000000      0x1fb ./board/clock_config.o
 .debug_macro   0x00000000      0x106 ./board/clock_config.o
 .debug_macro   0x00000000     0x11e1 ./board/clock_config.o
 .group         0x00000000        0xc ./board/dcd.o
 .group         0x00000000        0xc ./board/dcd.o
 .group         0x00000000        0xc ./board/dcd.o
 .group         0x00000000        0xc ./board/dcd.o
 .group         0x00000000        0xc ./board/dcd.o
 .text          0x00000000        0x0 ./board/dcd.o
 .data          0x00000000        0x0 ./board/dcd.o
 .bss           0x00000000        0x0 ./board/dcd.o
 .debug_macro   0x00000000      0xb1a ./board/dcd.o
 .debug_macro   0x00000000       0x10 ./board/dcd.o
 .debug_macro   0x00000000      0x12e ./board/dcd.o
 .debug_macro   0x00000000      0x5b3 ./board/dcd.o
 .group         0x00000000        0xc ./board/pin_mux.o
 .group         0x00000000        0xc ./board/pin_mux.o
 .group         0x00000000        0xc ./board/pin_mux.o
 .group         0x00000000        0xc ./board/pin_mux.o
 .group         0x00000000        0xc ./board/pin_mux.o
 .group         0x00000000        0xc ./board/pin_mux.o
 .group         0x00000000        0xc ./board/pin_mux.o
 .group         0x00000000        0xc ./board/pin_mux.o
 .group         0x00000000        0xc ./board/pin_mux.o
 .group         0x00000000        0xc ./board/pin_mux.o
 .group         0x00000000        0xc ./board/pin_mux.o
 .group         0x00000000        0xc ./board/pin_mux.o
 .group         0x00000000        0xc ./board/pin_mux.o
 .group         0x00000000        0xc ./board/pin_mux.o
 .group         0x00000000        0xc ./board/pin_mux.o
 .group         0x00000000        0xc ./board/pin_mux.o
 .group         0x00000000        0xc ./board/pin_mux.o
 .group         0x00000000        0xc ./board/pin_mux.o
 .group         0x00000000        0xc ./board/pin_mux.o
 .group         0x00000000        0xc ./board/pin_mux.o
 .group         0x00000000        0xc ./board/pin_mux.o
 .group         0x00000000        0xc ./board/pin_mux.o
 .text          0x00000000        0x0 ./board/pin_mux.o
 .data          0x00000000        0x0 ./board/pin_mux.o
 .bss           0x00000000        0x0 ./board/pin_mux.o
 .text.BOARD_InitBootPins
                0x00000000        0xc ./board/pin_mux.o
 .debug_macro   0x00000000      0xb1a ./board/pin_mux.o
 .debug_macro   0x00000000       0x10 ./board/pin_mux.o
 .debug_macro   0x00000000       0x1c ./board/pin_mux.o
 .debug_macro   0x00000000       0x22 ./board/pin_mux.o
 .debug_macro   0x00000000      0x12e ./board/pin_mux.o
 .debug_macro   0x00000000      0x5b3 ./board/pin_mux.o
 .debug_macro   0x00000000       0x22 ./board/pin_mux.o
 .debug_macro   0x00000000       0x10 ./board/pin_mux.o
 .debug_macro   0x00000000       0x4d ./board/pin_mux.o
 .debug_macro   0x00000000       0x1c ./board/pin_mux.o
 .debug_macro   0x00000000       0x22 ./board/pin_mux.o
 .debug_macro   0x00000000      0x101 ./board/pin_mux.o
 .debug_macro   0x00000000     0x1305 ./board/pin_mux.o
 .debug_macro   0x00000000      0x11f ./board/pin_mux.o
 .debug_macro   0x00000000       0x27 ./board/pin_mux.o
 .debug_macro   0x00000000       0x1c ./board/pin_mux.o
 .debug_macro   0x00000000    0x1ffc2 ./board/pin_mux.o
 .debug_macro   0x00000000      0x6da ./board/pin_mux.o
 .debug_macro   0x00000000       0xde ./board/pin_mux.o
 .debug_macro   0x00000000      0x1fb ./board/pin_mux.o
 .debug_macro   0x00000000     0x11e1 ./board/pin_mux.o
 .debug_macro   0x00000000       0x2e ./board/pin_mux.o
 .text          0x00000000        0x0 c:/nxp/mcuxpressoide_11.1.1_3241/ide/plugins/com.nxp.mcuxpresso.tools.win32_11.1.0.202001081728/tools/bin/../lib/gcc/arm-none-eabi/8.3.1/../../../../arm-none-eabi/lib/thumb/v7e-m+dp/hard\libcr_nohost_nf.a(_cr__main.o)
 .data          0x00000000        0x0 c:/nxp/mcuxpressoide_11.1.1_3241/ide/plugins/com.nxp.mcuxpresso.tools.win32_11.1.0.202001081728/tools/bin/../lib/gcc/arm-none-eabi/8.3.1/../../../../arm-none-eabi/lib/thumb/v7e-m+dp/hard\libcr_nohost_nf.a(_cr__main.o)
 .bss           0x00000000        0x0 c:/nxp/mcuxpressoide_11.1.1_3241/ide/plugins/com.nxp.mcuxpresso.tools.win32_11.1.0.202001081728/tools/bin/../lib/gcc/arm-none-eabi/8.3.1/../../../../arm-none-eabi/lib/thumb/v7e-m+dp/hard\libcr_nohost_nf.a(_cr__main.o)
 .text          0x00000000        0x0 c:/nxp/mcuxpressoide_11.1.1_3241/ide/plugins/com.nxp.mcuxpresso.tools.win32_11.1.0.202001081728/tools/bin/../lib/gcc/arm-none-eabi/8.3.1/../../../../arm-none-eabi/lib/thumb/v7e-m+dp/hard\libcr_c.a(memcpy.o)
 .data          0x00000000        0x0 c:/nxp/mcuxpressoide_11.1.1_3241/ide/plugins/com.nxp.mcuxpresso.tools.win32_11.1.0.202001081728/tools/bin/../lib/gcc/arm-none-eabi/8.3.1/../../../../arm-none-eabi/lib/thumb/v7e-m+dp/hard\libcr_c.a(memcpy.o)
 .bss           0x00000000        0x0 c:/nxp/mcuxpressoide_11.1.1_3241/ide/plugins/com.nxp.mcuxpresso.tools.win32_11.1.0.202001081728/tools/bin/../lib/gcc/arm-none-eabi/8.3.1/../../../../arm-none-eabi/lib/thumb/v7e-m+dp/hard\libcr_c.a(memcpy.o)
 .text          0x00000000        0x0 c:/nxp/mcuxpressoide_11.1.1_3241/ide/plugins/com.nxp.mcuxpresso.tools.win32_11.1.0.202001081728/tools/bin/../lib/gcc/arm-none-eabi/8.3.1/../../../../arm-none-eabi/lib/thumb/v7e-m+dp/hard\libcr_c.a(memset.o)
 .data          0x00000000        0x0 c:/nxp/mcuxpressoide_11.1.1_3241/ide/plugins/com.nxp.mcuxpresso.tools.win32_11.1.0.202001081728/tools/bin/../lib/gcc/arm-none-eabi/8.3.1/../../../../arm-none-eabi/lib/thumb/v7e-m+dp/hard\libcr_c.a(memset.o)
 .bss           0x00000000        0x0 c:/nxp/mcuxpressoide_11.1.1_3241/ide/plugins/com.nxp.mcuxpresso.tools.win32_11.1.0.202001081728/tools/bin/../lib/gcc/arm-none-eabi/8.3.1/../../../../arm-none-eabi/lib/thumb/v7e-m+dp/hard\libcr_c.a(memset.o)
 .text          0x00000000        0x0 c:/nxp/mcuxpressoide_11.1.1_3241/ide/plugins/com.nxp.mcuxpresso.tools.win32_11.1.0.202001081728/tools/bin/../lib/gcc/arm-none-eabi/8.3.1/../../../../arm-none-eabi/lib/thumb/v7e-m+dp/hard\libcr_c.a(alloc.o)
 .data          0x00000000        0x0 c:/nxp/mcuxpressoide_11.1.1_3241/ide/plugins/com.nxp.mcuxpresso.tools.win32_11.1.0.202001081728/tools/bin/../lib/gcc/arm-none-eabi/8.3.1/../../../../arm-none-eabi/lib/thumb/v7e-m+dp/hard\libcr_c.a(alloc.o)
 .bss           0x00000000        0x0 c:/nxp/mcuxpressoide_11.1.1_3241/ide/plugins/com.nxp.mcuxpresso.tools.win32_11.1.0.202001081728/tools/bin/../lib/gcc/arm-none-eabi/8.3.1/../../../../arm-none-eabi/lib/thumb/v7e-m+dp/hard\libcr_c.a(alloc.o)
 .text.malloc   0x00000000       0xc8 c:/nxp/mcuxpressoide_11.1.1_3241/ide/plugins/com.nxp.mcuxpresso.tools.win32_11.1.0.202001081728/tools/bin/../lib/gcc/arm-none-eabi/8.3.1/../../../../arm-none-eabi/lib/thumb/v7e-m+dp/hard\libcr_c.a(alloc.o)
 .text.calloc   0x00000000       0x50 c:/nxp/mcuxpressoide_11.1.1_3241/ide/plugins/com.nxp.mcuxpresso.tools.win32_11.1.0.202001081728/tools/bin/../lib/gcc/arm-none-eabi/8.3.1/../../../../arm-none-eabi/lib/thumb/v7e-m+dp/hard\libcr_c.a(alloc.o)
 .text._Csys_alloc
                0x00000000       0x20 c:/nxp/mcuxpressoide_11.1.1_3241/ide/plugins/com.nxp.mcuxpresso.tools.win32_11.1.0.202001081728/tools/bin/../lib/gcc/arm-none-eabi/8.3.1/../../../../arm-none-eabi/lib/thumb/v7e-m+dp/hard\libcr_c.a(alloc.o)
 .text.realloc  0x00000000       0x24 c:/nxp/mcuxpressoide_11.1.1_3241/ide/plugins/com.nxp.mcuxpresso.tools.win32_11.1.0.202001081728/tools/bin/../lib/gcc/arm-none-eabi/8.3.1/../../../../arm-none-eabi/lib/thumb/v7e-m+dp/hard\libcr_c.a(alloc.o)
 .rodata._Csys_alloc.str1.1
                0x00000000       0x18 c:/nxp/mcuxpressoide_11.1.1_3241/ide/plugins/com.nxp.mcuxpresso.tools.win32_11.1.0.202001081728/tools/bin/../lib/gcc/arm-none-eabi/8.3.1/../../../../arm-none-eabi/lib/thumb/v7e-m+dp/hard\libcr_c.a(alloc.o)
 .text          0x00000000        0x0 c:/nxp/mcuxpressoide_11.1.1_3241/ide/plugins/com.nxp.mcuxpresso.tools.win32_11.1.0.202001081728/tools/bin/../lib/gcc/arm-none-eabi/8.3.1/../../../../arm-none-eabi/lib/thumb/v7e-m+dp/hard\libcr_c.a(initio.o)
 .data          0x00000000        0x0 c:/nxp/mcuxpressoide_11.1.1_3241/ide/plugins/com.nxp.mcuxpresso.tools.win32_11.1.0.202001081728/tools/bin/../lib/gcc/arm-none-eabi/8.3.1/../../../../arm-none-eabi/lib/thumb/v7e-m+dp/hard\libcr_c.a(initio.o)
 .bss           0x00000000        0x0 c:/nxp/mcuxpressoide_11.1.1_3241/ide/plugins/com.nxp.mcuxpresso.tools.win32_11.1.0.202001081728/tools/bin/../lib/gcc/arm-none-eabi/8.3.1/../../../../arm-none-eabi/lib/thumb/v7e-m+dp/hard\libcr_c.a(initio.o)
 .text._terminateio
                0x00000000       0x50 c:/nxp/mcuxpressoide_11.1.1_3241/ide/plugins/com.nxp.mcuxpresso.tools.win32_11.1.0.202001081728/tools/bin/../lib/gcc/arm-none-eabi/8.3.1/../../../../arm-none-eabi/lib/thumb/v7e-m+dp/hard\libcr_c.a(initio.o)
 .text          0x00000000        0x0 c:/nxp/mcuxpressoide_11.1.1_3241/ide/plugins/com.nxp.mcuxpresso.tools.win32_11.1.0.202001081728/tools/bin/../lib/gcc/arm-none-eabi/8.3.1/../../../../arm-none-eabi/lib/thumb/v7e-m+dp/hard\libcr_c.a(scanf.o)
 .data          0x00000000        0x0 c:/nxp/mcuxpressoide_11.1.1_3241/ide/plugins/com.nxp.mcuxpresso.tools.win32_11.1.0.202001081728/tools/bin/../lib/gcc/arm-none-eabi/8.3.1/../../../../arm-none-eabi/lib/thumb/v7e-m+dp/hard\libcr_c.a(scanf.o)
 .bss           0x00000000        0x0 c:/nxp/mcuxpressoide_11.1.1_3241/ide/plugins/com.nxp.mcuxpresso.tools.win32_11.1.0.202001081728/tools/bin/../lib/gcc/arm-none-eabi/8.3.1/../../../../arm-none-eabi/lib/thumb/v7e-m+dp/hard\libcr_c.a(scanf.o)
 .text.ch_val   0x00000000       0x30 c:/nxp/mcuxpressoide_11.1.1_3241/ide/plugins/com.nxp.mcuxpresso.tools.win32_11.1.0.202001081728/tools/bin/../lib/gcc/arm-none-eabi/8.3.1/../../../../arm-none-eabi/lib/thumb/v7e-m+dp/hard\libcr_c.a(scanf.o)
 .text._strtoul
                0x00000000       0xb8 c:/nxp/mcuxpressoide_11.1.1_3241/ide/plugins/com.nxp.mcuxpresso.tools.win32_11.1.0.202001081728/tools/bin/../lib/gcc/arm-none-eabi/8.3.1/../../../../arm-none-eabi/lib/thumb/v7e-m+dp/hard\libcr_c.a(scanf.o)
 .text.cr_rd_int
                0x00000000      0x1a8 c:/nxp/mcuxpressoide_11.1.1_3241/ide/plugins/com.nxp.mcuxpresso.tools.win32_11.1.0.202001081728/tools/bin/../lib/gcc/arm-none-eabi/8.3.1/../../../../arm-none-eabi/lib/thumb/v7e-m+dp/hard\libcr_c.a(scanf.o)
 .text.vfscanf  0x00000000      0x890 c:/nxp/mcuxpressoide_11.1.1_3241/ide/plugins/com.nxp.mcuxpresso.tools.win32_11.1.0.202001081728/tools/bin/../lib/gcc/arm-none-eabi/8.3.1/../../../../arm-none-eabi/lib/thumb/v7e-m+dp/hard\libcr_c.a(scanf.o)
 .text._ncc_vfscanf
                0x00000000        0x4 c:/nxp/mcuxpressoide_11.1.1_3241/ide/plugins/com.nxp.mcuxpresso.tools.win32_11.1.0.202001081728/tools/bin/../lib/gcc/arm-none-eabi/8.3.1/../../../../arm-none-eabi/lib/thumb/v7e-m+dp/hard\libcr_c.a(scanf.o)
 .text.fscanf   0x00000000       0x1a c:/nxp/mcuxpressoide_11.1.1_3241/ide/plugins/com.nxp.mcuxpresso.tools.win32_11.1.0.202001081728/tools/bin/../lib/gcc/arm-none-eabi/8.3.1/../../../../arm-none-eabi/lib/thumb/v7e-m+dp/hard\libcr_c.a(scanf.o)
 .text.scanf    0x00000000       0x20 c:/nxp/mcuxpressoide_11.1.1_3241/ide/plugins/com.nxp.mcuxpresso.tools.win32_11.1.0.202001081728/tools/bin/../lib/gcc/arm-none-eabi/8.3.1/../../../../arm-none-eabi/lib/thumb/v7e-m+dp/hard\libcr_c.a(scanf.o)
 .text.sscanf   0x00000000       0x3e c:/nxp/mcuxpressoide_11.1.1_3241/ide/plugins/com.nxp.mcuxpresso.tools.win32_11.1.0.202001081728/tools/bin/../lib/gcc/arm-none-eabi/8.3.1/../../../../arm-none-eabi/lib/thumb/v7e-m+dp/hard\libcr_c.a(scanf.o)
 .text.strtod   0x00000000       0x3c c:/nxp/mcuxpressoide_11.1.1_3241/ide/plugins/com.nxp.mcuxpresso.tools.win32_11.1.0.202001081728/tools/bin/../lib/gcc/arm-none-eabi/8.3.1/../../../../arm-none-eabi/lib/thumb/v7e-m+dp/hard\libcr_c.a(scanf.o)
 .text.strtof   0x00000000        0xc c:/nxp/mcuxpressoide_11.1.1_3241/ide/plugins/com.nxp.mcuxpresso.tools.win32_11.1.0.202001081728/tools/bin/../lib/gcc/arm-none-eabi/8.3.1/../../../../arm-none-eabi/lib/thumb/v7e-m+dp/hard\libcr_c.a(scanf.o)
 .text.strtol   0x00000000       0x7c c:/nxp/mcuxpressoide_11.1.1_3241/ide/plugins/com.nxp.mcuxpresso.tools.win32_11.1.0.202001081728/tools/bin/../lib/gcc/arm-none-eabi/8.3.1/../../../../arm-none-eabi/lib/thumb/v7e-m+dp/hard\libcr_c.a(scanf.o)
 .text.strtoul  0x00000000       0x8c c:/nxp/mcuxpressoide_11.1.1_3241/ide/plugins/com.nxp.mcuxpresso.tools.win32_11.1.0.202001081728/tools/bin/../lib/gcc/arm-none-eabi/8.3.1/../../../../arm-none-eabi/lib/thumb/v7e-m+dp/hard\libcr_c.a(scanf.o)
 .text.atof     0x00000000       0x14 c:/nxp/mcuxpressoide_11.1.1_3241/ide/plugins/com.nxp.mcuxpresso.tools.win32_11.1.0.202001081728/tools/bin/../lib/gcc/arm-none-eabi/8.3.1/../../../../arm-none-eabi/lib/thumb/v7e-m+dp/hard\libcr_c.a(scanf.o)
 .text.atoi     0x00000000       0x18 c:/nxp/mcuxpressoide_11.1.1_3241/ide/plugins/com.nxp.mcuxpresso.tools.win32_11.1.0.202001081728/tools/bin/../lib/gcc/arm-none-eabi/8.3.1/../../../../arm-none-eabi/lib/thumb/v7e-m+dp/hard\libcr_c.a(scanf.o)
 .text.atol     0x00000000       0x18 c:/nxp/mcuxpressoide_11.1.1_3241/ide/plugins/com.nxp.mcuxpresso.tools.win32_11.1.0.202001081728/tools/bin/../lib/gcc/arm-none-eabi/8.3.1/../../../../arm-none-eabi/lib/thumb/v7e-m+dp/hard\libcr_c.a(scanf.o)
 .data.neginf.5721
                0x00000000        0x4 c:/nxp/mcuxpressoide_11.1.1_3241/ide/plugins/com.nxp.mcuxpresso.tools.win32_11.1.0.202001081728/tools/bin/../lib/gcc/arm-none-eabi/8.3.1/../../../../arm-none-eabi/lib/thumb/v7e-m+dp/hard\libcr_c.a(scanf.o)
 .data.posinf.5720
                0x00000000        0x4 c:/nxp/mcuxpressoide_11.1.1_3241/ide/plugins/com.nxp.mcuxpresso.tools.win32_11.1.0.202001081728/tools/bin/../lib/gcc/arm-none-eabi/8.3.1/../../../../arm-none-eabi/lib/thumb/v7e-m+dp/hard\libcr_c.a(scanf.o)
 .rodata.strtod.str1.1
                0x00000000        0x6 c:/nxp/mcuxpressoide_11.1.1_3241/ide/plugins/com.nxp.mcuxpresso.tools.win32_11.1.0.202001081728/tools/bin/../lib/gcc/arm-none-eabi/8.3.1/../../../../arm-none-eabi/lib/thumb/v7e-m+dp/hard\libcr_c.a(scanf.o)
 .comment       0x00000000       0x77 c:/nxp/mcuxpressoide_11.1.1_3241/ide/plugins/com.nxp.mcuxpresso.tools.win32_11.1.0.202001081728/tools/bin/../lib/gcc/arm-none-eabi/8.3.1/../../../../arm-none-eabi/lib/thumb/v7e-m+dp/hard\libcr_c.a(scanf.o)
 .ARM.attributes
                0x00000000       0x32 c:/nxp/mcuxpressoide_11.1.1_3241/ide/plugins/com.nxp.mcuxpresso.tools.win32_11.1.0.202001081728/tools/bin/../lib/gcc/arm-none-eabi/8.3.1/../../../../arm-none-eabi/lib/thumb/v7e-m+dp/hard\libcr_c.a(scanf.o)
 .text          0x00000000        0x0 c:/nxp/mcuxpressoide_11.1.1_3241/ide/plugins/com.nxp.mcuxpresso.tools.win32_11.1.0.202001081728/tools/bin/../lib/gcc/arm-none-eabi/8.3.1/../../../../arm-none-eabi/lib/thumb/v7e-m+dp/hard\libcr_c.a(setvbuf.o)
 .data          0x00000000        0x0 c:/nxp/mcuxpressoide_11.1.1_3241/ide/plugins/com.nxp.mcuxpresso.tools.win32_11.1.0.202001081728/tools/bin/../lib/gcc/arm-none-eabi/8.3.1/../../../../arm-none-eabi/lib/thumb/v7e-m+dp/hard\libcr_c.a(setvbuf.o)
 .bss           0x00000000        0x0 c:/nxp/mcuxpressoide_11.1.1_3241/ide/plugins/com.nxp.mcuxpresso.tools.win32_11.1.0.202001081728/tools/bin/../lib/gcc/arm-none-eabi/8.3.1/../../../../arm-none-eabi/lib/thumb/v7e-m+dp/hard\libcr_c.a(setvbuf.o)
 .text          0x00000000        0x0 c:/nxp/mcuxpressoide_11.1.1_3241/ide/plugins/com.nxp.mcuxpresso.tools.win32_11.1.0.202001081728/tools/bin/../lib/gcc/arm-none-eabi/8.3.1/../../../../arm-none-eabi/lib/thumb/v7e-m+dp/hard\libcr_c.a(strlen.o)
 .data          0x00000000        0x0 c:/nxp/mcuxpressoide_11.1.1_3241/ide/plugins/com.nxp.mcuxpresso.tools.win32_11.1.0.202001081728/tools/bin/../lib/gcc/arm-none-eabi/8.3.1/../../../../arm-none-eabi/lib/thumb/v7e-m+dp/hard\libcr_c.a(strlen.o)
 .bss           0x00000000        0x0 c:/nxp/mcuxpressoide_11.1.1_3241/ide/plugins/com.nxp.mcuxpresso.tools.win32_11.1.0.202001081728/tools/bin/../lib/gcc/arm-none-eabi/8.3.1/../../../../arm-none-eabi/lib/thumb/v7e-m+dp/hard\libcr_c.a(strlen.o)
 .text          0x00000000        0x0 c:/nxp/mcuxpressoide_11.1.1_3241/ide/plugins/com.nxp.mcuxpresso.tools.win32_11.1.0.202001081728/tools/bin/../lib/gcc/arm-none-eabi/8.3.1/../../../../arm-none-eabi/lib/thumb/v7e-m+dp/hard\libcr_c.a(ungetc.o)
 .data          0x00000000        0x0 c:/nxp/mcuxpressoide_11.1.1_3241/ide/plugins/com.nxp.mcuxpresso.tools.win32_11.1.0.202001081728/tools/bin/../lib/gcc/arm-none-eabi/8.3.1/../../../../arm-none-eabi/lib/thumb/v7e-m+dp/hard\libcr_c.a(ungetc.o)
 .bss           0x00000000        0x0 c:/nxp/mcuxpressoide_11.1.1_3241/ide/plugins/com.nxp.mcuxpresso.tools.win32_11.1.0.202001081728/tools/bin/../lib/gcc/arm-none-eabi/8.3.1/../../../../arm-none-eabi/lib/thumb/v7e-m+dp/hard\libcr_c.a(ungetc.o)
 .text.ungetc   0x00000000       0x32 c:/nxp/mcuxpressoide_11.1.1_3241/ide/plugins/com.nxp.mcuxpresso.tools.win32_11.1.0.202001081728/tools/bin/../lib/gcc/arm-none-eabi/8.3.1/../../../../arm-none-eabi/lib/thumb/v7e-m+dp/hard\libcr_c.a(ungetc.o)
 .comment       0x00000000       0x77 c:/nxp/mcuxpressoide_11.1.1_3241/ide/plugins/com.nxp.mcuxpresso.tools.win32_11.1.0.202001081728/tools/bin/../lib/gcc/arm-none-eabi/8.3.1/../../../../arm-none-eabi/lib/thumb/v7e-m+dp/hard\libcr_c.a(ungetc.o)
 .ARM.attributes
                0x00000000       0x32 c:/nxp/mcuxpressoide_11.1.1_3241/ide/plugins/com.nxp.mcuxpresso.tools.win32_11.1.0.202001081728/tools/bin/../lib/gcc/arm-none-eabi/8.3.1/../../../../arm-none-eabi/lib/thumb/v7e-m+dp/hard\libcr_c.a(ungetc.o)
 .text          0x00000000        0x0 c:/nxp/mcuxpressoide_11.1.1_3241/ide/plugins/com.nxp.mcuxpresso.tools.win32_11.1.0.202001081728/tools/bin/../lib/gcc/arm-none-eabi/8.3.1/../../../../arm-none-eabi/lib/thumb/v7e-m+dp/hard\libcr_c.a(__fillbuf.o)
 .data          0x00000000        0x0 c:/nxp/mcuxpressoide_11.1.1_3241/ide/plugins/com.nxp.mcuxpresso.tools.win32_11.1.0.202001081728/tools/bin/../lib/gcc/arm-none-eabi/8.3.1/../../../../arm-none-eabi/lib/thumb/v7e-m+dp/hard\libcr_c.a(__fillbuf.o)
 .bss           0x00000000        0x0 c:/nxp/mcuxpressoide_11.1.1_3241/ide/plugins/com.nxp.mcuxpresso.tools.win32_11.1.0.202001081728/tools/bin/../lib/gcc/arm-none-eabi/8.3.1/../../../../arm-none-eabi/lib/thumb/v7e-m+dp/hard\libcr_c.a(__fillbuf.o)
 .text._Csys_read_
                0x00000000       0x22 c:/nxp/mcuxpressoide_11.1.1_3241/ide/plugins/com.nxp.mcuxpresso.tools.win32_11.1.0.202001081728/tools/bin/../lib/gcc/arm-none-eabi/8.3.1/../../../../arm-none-eabi/lib/thumb/v7e-m+dp/hard\libcr_c.a(__fillbuf.o)
 .text.__filbuf
                0x00000000      0x178 c:/nxp/mcuxpressoide_11.1.1_3241/ide/plugins/com.nxp.mcuxpresso.tools.win32_11.1.0.202001081728/tools/bin/../lib/gcc/arm-none-eabi/8.3.1/../../../../arm-none-eabi/lib/thumb/v7e-m+dp/hard\libcr_c.a(__fillbuf.o)
 .text._fillb2  0x00000000       0x1c c:/nxp/mcuxpressoide_11.1.1_3241/ide/plugins/com.nxp.mcuxpresso.tools.win32_11.1.0.202001081728/tools/bin/../lib/gcc/arm-none-eabi/8.3.1/../../../../arm-none-eabi/lib/thumb/v7e-m+dp/hard\libcr_c.a(__fillbuf.o)
 .comment       0x00000000       0x77 c:/nxp/mcuxpressoide_11.1.1_3241/ide/plugins/com.nxp.mcuxpresso.tools.win32_11.1.0.202001081728/tools/bin/../lib/gcc/arm-none-eabi/8.3.1/../../../../arm-none-eabi/lib/thumb/v7e-m+dp/hard\libcr_c.a(__fillbuf.o)
 .ARM.attributes
                0x00000000       0x32 c:/nxp/mcuxpressoide_11.1.1_3241/ide/plugins/com.nxp.mcuxpresso.tools.win32_11.1.0.202001081728/tools/bin/../lib/gcc/arm-none-eabi/8.3.1/../../../../arm-none-eabi/lib/thumb/v7e-m+dp/hard\libcr_c.a(__fillbuf.o)
 .text          0x00000000        0x0 c:/nxp/mcuxpressoide_11.1.1_3241/ide/plugins/com.nxp.mcuxpresso.tools.win32_11.1.0.202001081728/tools/bin/../lib/gcc/arm-none-eabi/8.3.1/../../../../arm-none-eabi/lib/thumb/v7e-m+dp/hard\libcr_c.a(__init_alloc.o)
 .data          0x00000000        0x0 c:/nxp/mcuxpressoide_11.1.1_3241/ide/plugins/com.nxp.mcuxpresso.tools.win32_11.1.0.202001081728/tools/bin/../lib/gcc/arm-none-eabi/8.3.1/../../../../arm-none-eabi/lib/thumb/v7e-m+dp/hard\libcr_c.a(__init_alloc.o)
 .bss           0x00000000        0x0 c:/nxp/mcuxpressoide_11.1.1_3241/ide/plugins/com.nxp.mcuxpresso.tools.win32_11.1.0.202001081728/tools/bin/../lib/gcc/arm-none-eabi/8.3.1/../../../../arm-none-eabi/lib/thumb/v7e-m+dp/hard\libcr_c.a(__init_alloc.o)
 .text._init_alloc
                0x00000000       0x14 c:/nxp/mcuxpressoide_11.1.1_3241/ide/plugins/com.nxp.mcuxpresso.tools.win32_11.1.0.202001081728/tools/bin/../lib/gcc/arm-none-eabi/8.3.1/../../../../arm-none-eabi/lib/thumb/v7e-m+dp/hard\libcr_c.a(__init_alloc.o)
 .bss.__end_of_heap
                0x00000000        0x4 c:/nxp/mcuxpressoide_11.1.1_3241/ide/plugins/com.nxp.mcuxpresso.tools.win32_11.1.0.202001081728/tools/bin/../lib/gcc/arm-none-eabi/8.3.1/../../../../arm-none-eabi/lib/thumb/v7e-m+dp/hard\libcr_c.a(__init_alloc.o)
 .bss.__heaps   0x00000000        0x4 c:/nxp/mcuxpressoide_11.1.1_3241/ide/plugins/com.nxp.mcuxpresso.tools.win32_11.1.0.202001081728/tools/bin/../lib/gcc/arm-none-eabi/8.3.1/../../../../arm-none-eabi/lib/thumb/v7e-m+dp/hard\libcr_c.a(__init_alloc.o)
 .comment       0x00000000       0x77 c:/nxp/mcuxpressoide_11.1.1_3241/ide/plugins/com.nxp.mcuxpresso.tools.win32_11.1.0.202001081728/tools/bin/../lib/gcc/arm-none-eabi/8.3.1/../../../../arm-none-eabi/lib/thumb/v7e-m+dp/hard\libcr_c.a(__init_alloc.o)
 .ARM.attributes
                0x00000000       0x32 c:/nxp/mcuxpressoide_11.1.1_3241/ide/plugins/com.nxp.mcuxpresso.tools.win32_11.1.0.202001081728/tools/bin/../lib/gcc/arm-none-eabi/8.3.1/../../../../arm-none-eabi/lib/thumb/v7e-m+dp/hard\libcr_c.a(__init_alloc.o)
 .text          0x00000000        0x0 c:/nxp/mcuxpressoide_11.1.1_3241/ide/plugins/com.nxp.mcuxpresso.tools.win32_11.1.0.202001081728/tools/bin/../lib/gcc/arm-none-eabi/8.3.1/../../../../arm-none-eabi/lib/thumb/v7e-m+dp/hard\libcr_c.a(_cr_sbrk.o)
 .data          0x00000000        0x0 c:/nxp/mcuxpressoide_11.1.1_3241/ide/plugins/com.nxp.mcuxpresso.tools.win32_11.1.0.202001081728/tools/bin/../lib/gcc/arm-none-eabi/8.3.1/../../../../arm-none-eabi/lib/thumb/v7e-m+dp/hard\libcr_c.a(_cr_sbrk.o)
 .bss           0x00000000        0x0 c:/nxp/mcuxpressoide_11.1.1_3241/ide/plugins/com.nxp.mcuxpresso.tools.win32_11.1.0.202001081728/tools/bin/../lib/gcc/arm-none-eabi/8.3.1/../../../../arm-none-eabi/lib/thumb/v7e-m+dp/hard\libcr_c.a(_cr_sbrk.o)
 .text._sbrk    0x00000000       0x3c c:/nxp/mcuxpressoide_11.1.1_3241/ide/plugins/com.nxp.mcuxpresso.tools.win32_11.1.0.202001081728/tools/bin/../lib/gcc/arm-none-eabi/8.3.1/../../../../arm-none-eabi/lib/thumb/v7e-m+dp/hard\libcr_c.a(_cr_sbrk.o)
 .comment       0x00000000       0x77 c:/nxp/mcuxpressoide_11.1.1_3241/ide/plugins/com.nxp.mcuxpresso.tools.win32_11.1.0.202001081728/tools/bin/../lib/gcc/arm-none-eabi/8.3.1/../../../../arm-none-eabi/lib/thumb/v7e-m+dp/hard\libcr_c.a(_cr_sbrk.o)
 .ARM.attributes
                0x00000000       0x32 c:/nxp/mcuxpressoide_11.1.1_3241/ide/plugins/com.nxp.mcuxpresso.tools.win32_11.1.0.202001081728/tools/bin/../lib/gcc/arm-none-eabi/8.3.1/../../../../arm-none-eabi/lib/thumb/v7e-m+dp/hard\libcr_c.a(_cr_sbrk.o)
 .text          0x00000000        0x0 c:/nxp/mcuxpressoide_11.1.1_3241/ide/plugins/com.nxp.mcuxpresso.tools.win32_11.1.0.202001081728/tools/bin/../lib/gcc/arm-none-eabi/8.3.1/../../../../arm-none-eabi/lib/thumb/v7e-m+dp/hard\libcr_c.a(_deferredlazyseek.o)
 .data          0x00000000        0x0 c:/nxp/mcuxpressoide_11.1.1_3241/ide/plugins/com.nxp.mcuxpresso.tools.win32_11.1.0.202001081728/tools/bin/../lib/gcc/arm-none-eabi/8.3.1/../../../../arm-none-eabi/lib/thumb/v7e-m+dp/hard\libcr_c.a(_deferredlazyseek.o)
 .bss           0x00000000        0x0 c:/nxp/mcuxpressoide_11.1.1_3241/ide/plugins/com.nxp.mcuxpresso.tools.win32_11.1.0.202001081728/tools/bin/../lib/gcc/arm-none-eabi/8.3.1/../../../../arm-none-eabi/lib/thumb/v7e-m+dp/hard\libcr_c.a(_deferredlazyseek.o)
 .text.__flsbuf
                0x00000000      0x140 c:/nxp/mcuxpressoide_11.1.1_3241/ide/plugins/com.nxp.mcuxpresso.tools.win32_11.1.0.202001081728/tools/bin/../lib/gcc/arm-none-eabi/8.3.1/../../../../arm-none-eabi/lib/thumb/v7e-m+dp/hard\libcr_c.a(_deferredlazyseek.o)
 .text          0x00000000        0x0 c:/nxp/mcuxpressoide_11.1.1_3241/ide/plugins/com.nxp.mcuxpresso.tools.win32_11.1.0.202001081728/tools/bin/../lib/gcc/arm-none-eabi/8.3.1/../../../../arm-none-eabi/lib/thumb/v7e-m+dp/hard\libcr_c.a(_fdopen.o)
 .data          0x00000000        0x0 c:/nxp/mcuxpressoide_11.1.1_3241/ide/plugins/com.nxp.mcuxpresso.tools.win32_11.1.0.202001081728/tools/bin/../lib/gcc/arm-none-eabi/8.3.1/../../../../arm-none-eabi/lib/thumb/v7e-m+dp/hard\libcr_c.a(_fdopen.o)
 .bss           0x00000000        0x0 c:/nxp/mcuxpressoide_11.1.1_3241/ide/plugins/com.nxp.mcuxpresso.tools.win32_11.1.0.202001081728/tools/bin/../lib/gcc/arm-none-eabi/8.3.1/../../../../arm-none-eabi/lib/thumb/v7e-m+dp/hard\libcr_c.a(_fdopen.o)
 .text          0x00000000        0x0 c:/nxp/mcuxpressoide_11.1.1_3241/ide/plugins/com.nxp.mcuxpresso.tools.win32_11.1.0.202001081728/tools/bin/../lib/gcc/arm-none-eabi/8.3.1/../../../../arm-none-eabi/lib/thumb/v7e-m+dp/hard\libcr_c.a(_fflush.o)
 .data          0x00000000        0x0 c:/nxp/mcuxpressoide_11.1.1_3241/ide/plugins/com.nxp.mcuxpresso.tools.win32_11.1.0.202001081728/tools/bin/../lib/gcc/arm-none-eabi/8.3.1/../../../../arm-none-eabi/lib/thumb/v7e-m+dp/hard\libcr_c.a(_fflush.o)
 .bss           0x00000000        0x0 c:/nxp/mcuxpressoide_11.1.1_3241/ide/plugins/com.nxp.mcuxpresso.tools.win32_11.1.0.202001081728/tools/bin/../lib/gcc/arm-none-eabi/8.3.1/../../../../arm-none-eabi/lib/thumb/v7e-m+dp/hard\libcr_c.a(_fflush.o)
 .text          0x00000000        0x0 c:/nxp/mcuxpressoide_11.1.1_3241/ide/plugins/com.nxp.mcuxpresso.tools.win32_11.1.0.202001081728/tools/bin/../lib/gcc/arm-none-eabi/8.3.1/../../../../arm-none-eabi/lib/thumb/v7e-m+dp/hard\libcr_c.a(_frexpl.o)
 .data          0x00000000        0x0 c:/nxp/mcuxpressoide_11.1.1_3241/ide/plugins/com.nxp.mcuxpresso.tools.win32_11.1.0.202001081728/tools/bin/../lib/gcc/arm-none-eabi/8.3.1/../../../../arm-none-eabi/lib/thumb/v7e-m+dp/hard\libcr_c.a(_frexpl.o)
 .bss           0x00000000        0x0 c:/nxp/mcuxpressoide_11.1.1_3241/ide/plugins/com.nxp.mcuxpresso.tools.win32_11.1.0.202001081728/tools/bin/../lib/gcc/arm-none-eabi/8.3.1/../../../../arm-none-eabi/lib/thumb/v7e-m+dp/hard\libcr_c.a(_frexpl.o)
 .text._frexpl  0x00000000       0x68 c:/nxp/mcuxpressoide_11.1.1_3241/ide/plugins/com.nxp.mcuxpresso.tools.win32_11.1.0.202001081728/tools/bin/../lib/gcc/arm-none-eabi/8.3.1/../../../../arm-none-eabi/lib/thumb/v7e-m+dp/hard\libcr_c.a(_frexpl.o)
 .comment       0x00000000       0x77 c:/nxp/mcuxpressoide_11.1.1_3241/ide/plugins/com.nxp.mcuxpresso.tools.win32_11.1.0.202001081728/tools/bin/../lib/gcc/arm-none-eabi/8.3.1/../../../../arm-none-eabi/lib/thumb/v7e-m+dp/hard\libcr_c.a(_frexpl.o)
 .ARM.attributes
                0x00000000       0x32 c:/nxp/mcuxpressoide_11.1.1_3241/ide/plugins/com.nxp.mcuxpresso.tools.win32_11.1.0.202001081728/tools/bin/../lib/gcc/arm-none-eabi/8.3.1/../../../../arm-none-eabi/lib/thumb/v7e-m+dp/hard\libcr_c.a(_frexpl.o)
 .text          0x00000000        0x0 c:/nxp/mcuxpressoide_11.1.1_3241/ide/plugins/com.nxp.mcuxpresso.tools.win32_11.1.0.202001081728/tools/bin/../lib/gcc/arm-none-eabi/8.3.1/../../../../arm-none-eabi/lib/thumb/v7e-m+dp/hard\libcr_c.a(_ldexpl.o)
 .data          0x00000000        0x0 c:/nxp/mcuxpressoide_11.1.1_3241/ide/plugins/com.nxp.mcuxpresso.tools.win32_11.1.0.202001081728/tools/bin/../lib/gcc/arm-none-eabi/8.3.1/../../../../arm-none-eabi/lib/thumb/v7e-m+dp/hard\libcr_c.a(_ldexpl.o)
 .bss           0x00000000        0x0 c:/nxp/mcuxpressoide_11.1.1_3241/ide/plugins/com.nxp.mcuxpresso.tools.win32_11.1.0.202001081728/tools/bin/../lib/gcc/arm-none-eabi/8.3.1/../../../../arm-none-eabi/lib/thumb/v7e-m+dp/hard\libcr_c.a(_ldexpl.o)
 .text._ldexpl  0x00000000       0x5c c:/nxp/mcuxpressoide_11.1.1_3241/ide/plugins/com.nxp.mcuxpresso.tools.win32_11.1.0.202001081728/tools/bin/../lib/gcc/arm-none-eabi/8.3.1/../../../../arm-none-eabi/lib/thumb/v7e-m+dp/hard\libcr_c.a(_ldexpl.o)
 .comment       0x00000000       0x77 c:/nxp/mcuxpressoide_11.1.1_3241/ide/plugins/com.nxp.mcuxpresso.tools.win32_11.1.0.202001081728/tools/bin/../lib/gcc/arm-none-eabi/8.3.1/../../../../arm-none-eabi/lib/thumb/v7e-m+dp/hard\libcr_c.a(_ldexpl.o)
 .ARM.attributes
                0x00000000       0x32 c:/nxp/mcuxpressoide_11.1.1_3241/ide/plugins/com.nxp.mcuxpresso.tools.win32_11.1.0.202001081728/tools/bin/../lib/gcc/arm-none-eabi/8.3.1/../../../../arm-none-eabi/lib/thumb/v7e-m+dp/hard\libcr_c.a(_ldexpl.o)
 .text          0x00000000        0x0 c:/nxp/mcuxpressoide_11.1.1_3241/ide/plugins/com.nxp.mcuxpresso.tools.win32_11.1.0.202001081728/tools/bin/../lib/gcc/arm-none-eabi/8.3.1/../../../../arm-none-eabi/lib/thumb/v7e-m+dp/hard\libcr_c.a(_writebuf.o)
 .data          0x00000000        0x0 c:/nxp/mcuxpressoide_11.1.1_3241/ide/plugins/com.nxp.mcuxpresso.tools.win32_11.1.0.202001081728/tools/bin/../lib/gcc/arm-none-eabi/8.3.1/../../../../arm-none-eabi/lib/thumb/v7e-m+dp/hard\libcr_c.a(_writebuf.o)
 .bss           0x00000000        0x0 c:/nxp/mcuxpressoide_11.1.1_3241/ide/plugins/com.nxp.mcuxpresso.tools.win32_11.1.0.202001081728/tools/bin/../lib/gcc/arm-none-eabi/8.3.1/../../../../arm-none-eabi/lib/thumb/v7e-m+dp/hard\libcr_c.a(_writebuf.o)
 .text          0x00000000        0x0 c:/nxp/mcuxpressoide_11.1.1_3241/ide/plugins/com.nxp.mcuxpresso.tools.win32_11.1.0.202001081728/tools/bin/../lib/gcc/arm-none-eabi/8.3.1/../../../../arm-none-eabi/lib/thumb/v7e-m+dp/hard\libcr_c.a(ctype.o)
 .data          0x00000000        0x0 c:/nxp/mcuxpressoide_11.1.1_3241/ide/plugins/com.nxp.mcuxpresso.tools.win32_11.1.0.202001081728/tools/bin/../lib/gcc/arm-none-eabi/8.3.1/../../../../arm-none-eabi/lib/thumb/v7e-m+dp/hard\libcr_c.a(ctype.o)
 .bss           0x00000000        0x0 c:/nxp/mcuxpressoide_11.1.1_3241/ide/plugins/com.nxp.mcuxpresso.tools.win32_11.1.0.202001081728/tools/bin/../lib/gcc/arm-none-eabi/8.3.1/../../../../arm-none-eabi/lib/thumb/v7e-m+dp/hard\libcr_c.a(ctype.o)
 .text.isalnum  0x00000000       0x14 c:/nxp/mcuxpressoide_11.1.1_3241/ide/plugins/com.nxp.mcuxpresso.tools.win32_11.1.0.202001081728/tools/bin/../lib/gcc/arm-none-eabi/8.3.1/../../../../arm-none-eabi/lib/thumb/v7e-m+dp/hard\libcr_c.a(ctype.o)
 .text.isalpha  0x00000000       0x14 c:/nxp/mcuxpressoide_11.1.1_3241/ide/plugins/com.nxp.mcuxpresso.tools.win32_11.1.0.202001081728/tools/bin/../lib/gcc/arm-none-eabi/8.3.1/../../../../arm-none-eabi/lib/thumb/v7e-m+dp/hard\libcr_c.a(ctype.o)
 .text.iscntrl  0x00000000       0x14 c:/nxp/mcuxpressoide_11.1.1_3241/ide/plugins/com.nxp.mcuxpresso.tools.win32_11.1.0.202001081728/tools/bin/../lib/gcc/arm-none-eabi/8.3.1/../../../../arm-none-eabi/lib/thumb/v7e-m+dp/hard\libcr_c.a(ctype.o)
 .text.isdigit  0x00000000       0x14 c:/nxp/mcuxpressoide_11.1.1_3241/ide/plugins/com.nxp.mcuxpresso.tools.win32_11.1.0.202001081728/tools/bin/../lib/gcc/arm-none-eabi/8.3.1/../../../../arm-none-eabi/lib/thumb/v7e-m+dp/hard\libcr_c.a(ctype.o)
 .text.isgraph  0x00000000       0x14 c:/nxp/mcuxpressoide_11.1.1_3241/ide/plugins/com.nxp.mcuxpresso.tools.win32_11.1.0.202001081728/tools/bin/../lib/gcc/arm-none-eabi/8.3.1/../../../../arm-none-eabi/lib/thumb/v7e-m+dp/hard\libcr_c.a(ctype.o)
 .text.islower  0x00000000       0x14 c:/nxp/mcuxpressoide_11.1.1_3241/ide/plugins/com.nxp.mcuxpresso.tools.win32_11.1.0.202001081728/tools/bin/../lib/gcc/arm-none-eabi/8.3.1/../../../../arm-none-eabi/lib/thumb/v7e-m+dp/hard\libcr_c.a(ctype.o)
 .text.isprint  0x00000000       0x14 c:/nxp/mcuxpressoide_11.1.1_3241/ide/plugins/com.nxp.mcuxpresso.tools.win32_11.1.0.202001081728/tools/bin/../lib/gcc/arm-none-eabi/8.3.1/../../../../arm-none-eabi/lib/thumb/v7e-m+dp/hard\libcr_c.a(ctype.o)
 .text.ispunct  0x00000000       0x14 c:/nxp/mcuxpressoide_11.1.1_3241/ide/plugins/com.nxp.mcuxpresso.tools.win32_11.1.0.202001081728/tools/bin/../lib/gcc/arm-none-eabi/8.3.1/../../../../arm-none-eabi/lib/thumb/v7e-m+dp/hard\libcr_c.a(ctype.o)
 .text.isspace  0x00000000       0x14 c:/nxp/mcuxpressoide_11.1.1_3241/ide/plugins/com.nxp.mcuxpresso.tools.win32_11.1.0.202001081728/tools/bin/../lib/gcc/arm-none-eabi/8.3.1/../../../../arm-none-eabi/lib/thumb/v7e-m+dp/hard\libcr_c.a(ctype.o)
 .text.isupper  0x00000000       0x14 c:/nxp/mcuxpressoide_11.1.1_3241/ide/plugins/com.nxp.mcuxpresso.tools.win32_11.1.0.202001081728/tools/bin/../lib/gcc/arm-none-eabi/8.3.1/../../../../arm-none-eabi/lib/thumb/v7e-m+dp/hard\libcr_c.a(ctype.o)
 .text.isxdigit
                0x00000000       0x14 c:/nxp/mcuxpressoide_11.1.1_3241/ide/plugins/com.nxp.mcuxpresso.tools.win32_11.1.0.202001081728/tools/bin/../lib/gcc/arm-none-eabi/8.3.1/../../../../arm-none-eabi/lib/thumb/v7e-m+dp/hard\libcr_c.a(ctype.o)
 .text.tolower  0x00000000       0x14 c:/nxp/mcuxpressoide_11.1.1_3241/ide/plugins/com.nxp.mcuxpresso.tools.win32_11.1.0.202001081728/tools/bin/../lib/gcc/arm-none-eabi/8.3.1/../../../../arm-none-eabi/lib/thumb/v7e-m+dp/hard\libcr_c.a(ctype.o)
 .text.toupper  0x00000000       0x14 c:/nxp/mcuxpressoide_11.1.1_3241/ide/plugins/com.nxp.mcuxpresso.tools.win32_11.1.0.202001081728/tools/bin/../lib/gcc/arm-none-eabi/8.3.1/../../../../arm-none-eabi/lib/thumb/v7e-m+dp/hard\libcr_c.a(ctype.o)
 .rodata.__ctype
                0x00000000      0x180 c:/nxp/mcuxpressoide_11.1.1_3241/ide/plugins/com.nxp.mcuxpresso.tools.win32_11.1.0.202001081728/tools/bin/../lib/gcc/arm-none-eabi/8.3.1/../../../../arm-none-eabi/lib/thumb/v7e-m+dp/hard\libcr_c.a(ctype.o)
 .comment       0x00000000       0x77 c:/nxp/mcuxpressoide_11.1.1_3241/ide/plugins/com.nxp.mcuxpresso.tools.win32_11.1.0.202001081728/tools/bin/../lib/gcc/arm-none-eabi/8.3.1/../../../../arm-none-eabi/lib/thumb/v7e-m+dp/hard\libcr_c.a(ctype.o)
 .ARM.attributes
                0x00000000       0x32 c:/nxp/mcuxpressoide_11.1.1_3241/ide/plugins/com.nxp.mcuxpresso.tools.win32_11.1.0.202001081728/tools/bin/../lib/gcc/arm-none-eabi/8.3.1/../../../../arm-none-eabi/lib/thumb/v7e-m+dp/hard\libcr_c.a(ctype.o)
 .text          0x00000000        0x0 c:/nxp/mcuxpressoide_11.1.1_3241/ide/plugins/com.nxp.mcuxpresso.tools.win32_11.1.0.202001081728/tools/bin/../lib/gcc/arm-none-eabi/8.3.1/../../../../arm-none-eabi/lib/thumb/v7e-m+dp/hard\libcr_c.a(errno.o)
 .data          0x00000000        0x0 c:/nxp/mcuxpressoide_11.1.1_3241/ide/plugins/com.nxp.mcuxpresso.tools.win32_11.1.0.202001081728/tools/bin/../lib/gcc/arm-none-eabi/8.3.1/../../../../arm-none-eabi/lib/thumb/v7e-m+dp/hard\libcr_c.a(errno.o)
 .bss           0x00000000        0x0 c:/nxp/mcuxpressoide_11.1.1_3241/ide/plugins/com.nxp.mcuxpresso.tools.win32_11.1.0.202001081728/tools/bin/../lib/gcc/arm-none-eabi/8.3.1/../../../../arm-none-eabi/lib/thumb/v7e-m+dp/hard\libcr_c.a(errno.o)
 .text          0x00000000        0x0 c:/nxp/mcuxpressoide_11.1.1_3241/ide/plugins/com.nxp.mcuxpresso.tools.win32_11.1.0.202001081728/tools/bin/../lib/gcc/arm-none-eabi/8.3.1/../../../../arm-none-eabi/lib/thumb/v7e-m+dp/hard\libcr_c.a(fclose.o)
 .data          0x00000000        0x0 c:/nxp/mcuxpressoide_11.1.1_3241/ide/plugins/com.nxp.mcuxpresso.tools.win32_11.1.0.202001081728/tools/bin/../lib/gcc/arm-none-eabi/8.3.1/../../../../arm-none-eabi/lib/thumb/v7e-m+dp/hard\libcr_c.a(fclose.o)
 .bss           0x00000000        0x0 c:/nxp/mcuxpressoide_11.1.1_3241/ide/plugins/com.nxp.mcuxpresso.tools.win32_11.1.0.202001081728/tools/bin/../lib/gcc/arm-none-eabi/8.3.1/../../../../arm-none-eabi/lib/thumb/v7e-m+dp/hard\libcr_c.a(fclose.o)
 .text          0x00000000        0x0 c:/nxp/mcuxpressoide_11.1.1_3241/ide/plugins/com.nxp.mcuxpresso.tools.win32_11.1.0.202001081728/tools/bin/../lib/gcc/arm-none-eabi/8.3.1/../../../../arm-none-eabi/lib/thumb/v7e-m+dp/hard\libcr_c.a(fflush.o)
 .data          0x00000000        0x0 c:/nxp/mcuxpressoide_11.1.1_3241/ide/plugins/com.nxp.mcuxpresso.tools.win32_11.1.0.202001081728/tools/bin/../lib/gcc/arm-none-eabi/8.3.1/../../../../arm-none-eabi/lib/thumb/v7e-m+dp/hard\libcr_c.a(fflush.o)
 .bss           0x00000000        0x0 c:/nxp/mcuxpressoide_11.1.1_3241/ide/plugins/com.nxp.mcuxpresso.tools.win32_11.1.0.202001081728/tools/bin/../lib/gcc/arm-none-eabi/8.3.1/../../../../arm-none-eabi/lib/thumb/v7e-m+dp/hard\libcr_c.a(fflush.o)
 .text          0x00000000        0x0 c:/nxp/mcuxpressoide_11.1.1_3241/ide/plugins/com.nxp.mcuxpresso.tools.win32_11.1.0.202001081728/tools/bin/../lib/gcc/arm-none-eabi/8.3.1/../../../../arm-none-eabi/lib/thumb/v7e-m+dp/hard\libcr_c.a(fseek.o)
 .data          0x00000000        0x0 c:/nxp/mcuxpressoide_11.1.1_3241/ide/plugins/com.nxp.mcuxpresso.tools.win32_11.1.0.202001081728/tools/bin/../lib/gcc/arm-none-eabi/8.3.1/../../../../arm-none-eabi/lib/thumb/v7e-m+dp/hard\libcr_c.a(fseek.o)
 .bss           0x00000000        0x0 c:/nxp/mcuxpressoide_11.1.1_3241/ide/plugins/com.nxp.mcuxpresso.tools.win32_11.1.0.202001081728/tools/bin/../lib/gcc/arm-none-eabi/8.3.1/../../../../arm-none-eabi/lib/thumb/v7e-m+dp/hard\libcr_c.a(fseek.o)
 .text          0x00000000        0x0 c:/nxp/mcuxpressoide_11.1.1_3241/ide/plugins/com.nxp.mcuxpresso.tools.win32_11.1.0.202001081728/tools/bin/../lib/gcc/arm-none-eabi/8.3.1/../../../../arm-none-eabi/lib/thumb/v7e-m+dp/hard\libcr_c.a(ftell.o)
 .data          0x00000000        0x0 c:/nxp/mcuxpressoide_11.1.1_3241/ide/plugins/com.nxp.mcuxpresso.tools.win32_11.1.0.202001081728/tools/bin/../lib/gcc/arm-none-eabi/8.3.1/../../../../arm-none-eabi/lib/thumb/v7e-m+dp/hard\libcr_c.a(ftell.o)
 .bss           0x00000000        0x0 c:/nxp/mcuxpressoide_11.1.1_3241/ide/plugins/com.nxp.mcuxpresso.tools.win32_11.1.0.202001081728/tools/bin/../lib/gcc/arm-none-eabi/8.3.1/../../../../arm-none-eabi/lib/thumb/v7e-m+dp/hard\libcr_c.a(ftell.o)
 .text          0x00000000        0x0 c:/nxp/mcuxpressoide_11.1.1_3241/ide/plugins/com.nxp.mcuxpresso.tools.win32_11.1.0.202001081728/tools/bin/../lib/gcc/arm-none-eabi/8.3.1/../../../../arm-none-eabi/lib/thumb/v7e-m+dp/hard\libcr_c.a(remove.o)
 .data          0x00000000        0x0 c:/nxp/mcuxpressoide_11.1.1_3241/ide/plugins/com.nxp.mcuxpresso.tools.win32_11.1.0.202001081728/tools/bin/../lib/gcc/arm-none-eabi/8.3.1/../../../../arm-none-eabi/lib/thumb/v7e-m+dp/hard\libcr_c.a(remove.o)
 .bss           0x00000000        0x0 c:/nxp/mcuxpressoide_11.1.1_3241/ide/plugins/com.nxp.mcuxpresso.tools.win32_11.1.0.202001081728/tools/bin/../lib/gcc/arm-none-eabi/8.3.1/../../../../arm-none-eabi/lib/thumb/v7e-m+dp/hard\libcr_c.a(remove.o)
 .text.rename   0x00000000       0x28 c:/nxp/mcuxpressoide_11.1.1_3241/ide/plugins/com.nxp.mcuxpresso.tools.win32_11.1.0.202001081728/tools/bin/../lib/gcc/arm-none-eabi/8.3.1/../../../../arm-none-eabi/lib/thumb/v7e-m+dp/hard\libcr_c.a(remove.o)
 .text          0x00000000        0x0 c:/nxp/mcuxpressoide_11.1.1_3241/ide/plugins/com.nxp.mcuxpresso.tools.win32_11.1.0.202001081728/tools/bin/../lib/gcc/arm-none-eabi/8.3.1/../../../../arm-none-eabi/lib/thumb/v7e-m+dp/hard\libcr_c.a(_cr_check_heap.o)
 .data          0x00000000        0x0 c:/nxp/mcuxpressoide_11.1.1_3241/ide/plugins/com.nxp.mcuxpresso.tools.win32_11.1.0.202001081728/tools/bin/../lib/gcc/arm-none-eabi/8.3.1/../../../../arm-none-eabi/lib/thumb/v7e-m+dp/hard\libcr_c.a(_cr_check_heap.o)
 .bss           0x00000000        0x0 c:/nxp/mcuxpressoide_11.1.1_3241/ide/plugins/com.nxp.mcuxpresso.tools.win32_11.1.0.202001081728/tools/bin/../lib/gcc/arm-none-eabi/8.3.1/../../../../arm-none-eabi/lib/thumb/v7e-m+dp/hard\libcr_c.a(_cr_check_heap.o)
 .text.__check_heap_overflow
                0x00000000       0x18 c:/nxp/mcuxpressoide_11.1.1_3241/ide/plugins/com.nxp.mcuxpresso.tools.win32_11.1.0.202001081728/tools/bin/../lib/gcc/arm-none-eabi/8.3.1/../../../../arm-none-eabi/lib/thumb/v7e-m+dp/hard\libcr_c.a(_cr_check_heap.o)
 .comment       0x00000000       0x77 c:/nxp/mcuxpressoide_11.1.1_3241/ide/plugins/com.nxp.mcuxpresso.tools.win32_11.1.0.202001081728/tools/bin/../lib/gcc/arm-none-eabi/8.3.1/../../../../arm-none-eabi/lib/thumb/v7e-m+dp/hard\libcr_c.a(_cr_check_heap.o)
 .ARM.attributes
                0x00000000       0x32 c:/nxp/mcuxpressoide_11.1.1_3241/ide/plugins/com.nxp.mcuxpresso.tools.win32_11.1.0.202001081728/tools/bin/../lib/gcc/arm-none-eabi/8.3.1/../../../../arm-none-eabi/lib/thumb/v7e-m+dp/hard\libcr_c.a(_cr_check_heap.o)
 .text          0x00000000        0x0 c:/nxp/mcuxpressoide_11.1.1_3241/ide/plugins/com.nxp.mcuxpresso.tools.win32_11.1.0.202001081728/tools/bin/../lib/gcc/arm-none-eabi/8.3.1/../../../../arm-none-eabi/lib/thumb/v7e-m+dp/hard\libcr_c.a(_do_fflush.o)
 .data          0x00000000        0x0 c:/nxp/mcuxpressoide_11.1.1_3241/ide/plugins/com.nxp.mcuxpresso.tools.win32_11.1.0.202001081728/tools/bin/../lib/gcc/arm-none-eabi/8.3.1/../../../../arm-none-eabi/lib/thumb/v7e-m+dp/hard\libcr_c.a(_do_fflush.o)
 .bss           0x00000000        0x0 c:/nxp/mcuxpressoide_11.1.1_3241/ide/plugins/com.nxp.mcuxpresso.tools.win32_11.1.0.202001081728/tools/bin/../lib/gcc/arm-none-eabi/8.3.1/../../../../arm-none-eabi/lib/thumb/v7e-m+dp/hard\libcr_c.a(_do_fflush.o)
 .text          0x00000000        0x0 c:/nxp/mcuxpressoide_11.1.1_3241/ide/plugins/com.nxp.mcuxpresso.tools.win32_11.1.0.202001081728/tools/bin/../lib/gcc/arm-none-eabi/8.3.1/thumb/v7e-m+dp/hard\libcr_eabihelpers.a(division_64.o)
 .data          0x00000000        0x0 c:/nxp/mcuxpressoide_11.1.1_3241/ide/plugins/com.nxp.mcuxpresso.tools.win32_11.1.0.202001081728/tools/bin/../lib/gcc/arm-none-eabi/8.3.1/thumb/v7e-m+dp/hard\libcr_eabihelpers.a(division_64.o)
 .bss           0x00000000        0x0 c:/nxp/mcuxpressoide_11.1.1_3241/ide/plugins/com.nxp.mcuxpresso.tools.win32_11.1.0.202001081728/tools/bin/../lib/gcc/arm-none-eabi/8.3.1/thumb/v7e-m+dp/hard\libcr_eabihelpers.a(division_64.o)
 .text.__aeabi_division_ldivmod
                0x00000000       0x26 c:/nxp/mcuxpressoide_11.1.1_3241/ide/plugins/com.nxp.mcuxpresso.tools.win32_11.1.0.202001081728/tools/bin/../lib/gcc/arm-none-eabi/8.3.1/thumb/v7e-m+dp/hard\libcr_eabihelpers.a(division_64.o)
 .text.__aeabi_division_uldivmod
                0x00000000      0x174 c:/nxp/mcuxpressoide_11.1.1_3241/ide/plugins/com.nxp.mcuxpresso.tools.win32_11.1.0.202001081728/tools/bin/../lib/gcc/arm-none-eabi/8.3.1/thumb/v7e-m+dp/hard\libcr_eabihelpers.a(division_64.o)
 .ARM.attributes
                0x00000000       0x1e c:/nxp/mcuxpressoide_11.1.1_3241/ide/plugins/com.nxp.mcuxpresso.tools.win32_11.1.0.202001081728/tools/bin/../lib/gcc/arm-none-eabi/8.3.1/thumb/v7e-m+dp/hard\libcr_eabihelpers.a(division_64.o)
 .text          0x00000000        0x0 c:/nxp/mcuxpressoide_11.1.1_3241/ide/plugins/com.nxp.mcuxpresso.tools.win32_11.1.0.202001081728/tools/bin/../lib/gcc/arm-none-eabi/8.3.1/thumb/v7e-m+dp/hard\libcr_eabihelpers.a(division_idiv0.o)
 .data          0x00000000        0x0 c:/nxp/mcuxpressoide_11.1.1_3241/ide/plugins/com.nxp.mcuxpresso.tools.win32_11.1.0.202001081728/tools/bin/../lib/gcc/arm-none-eabi/8.3.1/thumb/v7e-m+dp/hard\libcr_eabihelpers.a(division_idiv0.o)
 .bss           0x00000000        0x0 c:/nxp/mcuxpressoide_11.1.1_3241/ide/plugins/com.nxp.mcuxpresso.tools.win32_11.1.0.202001081728/tools/bin/../lib/gcc/arm-none-eabi/8.3.1/thumb/v7e-m+dp/hard\libcr_eabihelpers.a(division_idiv0.o)
 .text.__aeabi_division_idiv0
                0x00000000        0x2 c:/nxp/mcuxpressoide_11.1.1_3241/ide/plugins/com.nxp.mcuxpresso.tools.win32_11.1.0.202001081728/tools/bin/../lib/gcc/arm-none-eabi/8.3.1/thumb/v7e-m+dp/hard\libcr_eabihelpers.a(division_idiv0.o)
 .ARM.attributes
                0x00000000       0x1e c:/nxp/mcuxpressoide_11.1.1_3241/ide/plugins/com.nxp.mcuxpresso.tools.win32_11.1.0.202001081728/tools/bin/../lib/gcc/arm-none-eabi/8.3.1/thumb/v7e-m+dp/hard\libcr_eabihelpers.a(division_idiv0.o)
 .text          0x00000000        0x0 c:/nxp/mcuxpressoide_11.1.1_3241/ide/plugins/com.nxp.mcuxpresso.tools.win32_11.1.0.202001081728/tools/bin/../lib/gcc/arm-none-eabi/8.3.1/thumb/v7e-m+dp/hard\libcr_eabihelpers.a(memcpy.o)
 .data          0x00000000        0x0 c:/nxp/mcuxpressoide_11.1.1_3241/ide/plugins/com.nxp.mcuxpresso.tools.win32_11.1.0.202001081728/tools/bin/../lib/gcc/arm-none-eabi/8.3.1/thumb/v7e-m+dp/hard\libcr_eabihelpers.a(memcpy.o)
 .bss           0x00000000        0x0 c:/nxp/mcuxpressoide_11.1.1_3241/ide/plugins/com.nxp.mcuxpresso.tools.win32_11.1.0.202001081728/tools/bin/../lib/gcc/arm-none-eabi/8.3.1/thumb/v7e-m+dp/hard\libcr_eabihelpers.a(memcpy.o)
 .text.__aeabi_memmove
                0x00000000       0x1c c:/nxp/mcuxpressoide_11.1.1_3241/ide/plugins/com.nxp.mcuxpresso.tools.win32_11.1.0.202001081728/tools/bin/../lib/gcc/arm-none-eabi/8.3.1/thumb/v7e-m+dp/hard\libcr_eabihelpers.a(memcpy.o)
 .text.__aeabi_memclr
                0x00000000        0x8 c:/nxp/mcuxpressoide_11.1.1_3241/ide/plugins/com.nxp.mcuxpresso.tools.win32_11.1.0.202001081728/tools/bin/../lib/gcc/arm-none-eabi/8.3.1/thumb/v7e-m+dp/hard\libcr_eabihelpers.a(memcpy.o)
 .text.__aeabi_memset
                0x00000000        0xa c:/nxp/mcuxpressoide_11.1.1_3241/ide/plugins/com.nxp.mcuxpresso.tools.win32_11.1.0.202001081728/tools/bin/../lib/gcc/arm-none-eabi/8.3.1/thumb/v7e-m+dp/hard\libcr_eabihelpers.a(memcpy.o)
 .text          0x00000000        0x0 c:/nxp/mcuxpressoide_11.1.1_3241/ide/plugins/com.nxp.mcuxpresso.tools.win32_11.1.0.202001081728/tools/bin/../lib/gcc/arm-none-eabi/8.3.1/../../../../arm-none-eabi/lib/thumb/v7e-m+dp/hard\libcr_nohost_nf.a(__ciob.o)
 .data          0x00000000        0x0 c:/nxp/mcuxpressoide_11.1.1_3241/ide/plugins/com.nxp.mcuxpresso.tools.win32_11.1.0.202001081728/tools/bin/../lib/gcc/arm-none-eabi/8.3.1/../../../../arm-none-eabi/lib/thumb/v7e-m+dp/hard\libcr_nohost_nf.a(__ciob.o)
 .bss           0x00000000        0x0 c:/nxp/mcuxpressoide_11.1.1_3241/ide/plugins/com.nxp.mcuxpresso.tools.win32_11.1.0.202001081728/tools/bin/../lib/gcc/arm-none-eabi/8.3.1/../../../../arm-none-eabi/lib/thumb/v7e-m+dp/hard\libcr_nohost_nf.a(__ciob.o)
 .text          0x00000000        0x0 c:/nxp/mcuxpressoide_11.1.1_3241/ide/plugins/com.nxp.mcuxpresso.tools.win32_11.1.0.202001081728/tools/bin/../lib/gcc/arm-none-eabi/8.3.1/../../../../arm-none-eabi/lib/thumb/v7e-m+dp/hard\libcr_nohost_nf.a(__sys_appexit.o)
 .data          0x00000000        0x0 c:/nxp/mcuxpressoide_11.1.1_3241/ide/plugins/com.nxp.mcuxpresso.tools.win32_11.1.0.202001081728/tools/bin/../lib/gcc/arm-none-eabi/8.3.1/../../../../arm-none-eabi/lib/thumb/v7e-m+dp/hard\libcr_nohost_nf.a(__sys_appexit.o)
 .bss           0x00000000        0x0 c:/nxp/mcuxpressoide_11.1.1_3241/ide/plugins/com.nxp.mcuxpresso.tools.win32_11.1.0.202001081728/tools/bin/../lib/gcc/arm-none-eabi/8.3.1/../../../../arm-none-eabi/lib/thumb/v7e-m+dp/hard\libcr_nohost_nf.a(__sys_appexit.o)
 .text.__sys_appexit
                0x00000000        0x2 c:/nxp/mcuxpressoide_11.1.1_3241/ide/plugins/com.nxp.mcuxpresso.tools.win32_11.1.0.202001081728/tools/bin/../lib/gcc/arm-none-eabi/8.3.1/../../../../arm-none-eabi/lib/thumb/v7e-m+dp/hard\libcr_nohost_nf.a(__sys_appexit.o)
 .comment       0x00000000       0x77 c:/nxp/mcuxpressoide_11.1.1_3241/ide/plugins/com.nxp.mcuxpresso.tools.win32_11.1.0.202001081728/tools/bin/../lib/gcc/arm-none-eabi/8.3.1/../../../../arm-none-eabi/lib/thumb/v7e-m+dp/hard\libcr_nohost_nf.a(__sys_appexit.o)
 .ARM.attributes
                0x00000000       0x32 c:/nxp/mcuxpressoide_11.1.1_3241/ide/plugins/com.nxp.mcuxpresso.tools.win32_11.1.0.202001081728/tools/bin/../lib/gcc/arm-none-eabi/8.3.1/../../../../arm-none-eabi/lib/thumb/v7e-m+dp/hard\libcr_nohost_nf.a(__sys_appexit.o)
 .text          0x00000000        0x0 c:/nxp/mcuxpressoide_11.1.1_3241/ide/plugins/com.nxp.mcuxpresso.tools.win32_11.1.0.202001081728/tools/bin/../lib/gcc/arm-none-eabi/8.3.1/../../../../arm-none-eabi/lib/thumb/v7e-m+dp/hard\libcr_nohost_nf.a(__sys_close.o)
 .data          0x00000000        0x0 c:/nxp/mcuxpressoide_11.1.1_3241/ide/plugins/com.nxp.mcuxpresso.tools.win32_11.1.0.202001081728/tools/bin/../lib/gcc/arm-none-eabi/8.3.1/../../../../arm-none-eabi/lib/thumb/v7e-m+dp/hard\libcr_nohost_nf.a(__sys_close.o)
 .bss           0x00000000        0x0 c:/nxp/mcuxpressoide_11.1.1_3241/ide/plugins/com.nxp.mcuxpresso.tools.win32_11.1.0.202001081728/tools/bin/../lib/gcc/arm-none-eabi/8.3.1/../../../../arm-none-eabi/lib/thumb/v7e-m+dp/hard\libcr_nohost_nf.a(__sys_close.o)
 .text          0x00000000        0x0 c:/nxp/mcuxpressoide_11.1.1_3241/ide/plugins/com.nxp.mcuxpresso.tools.win32_11.1.0.202001081728/tools/bin/../lib/gcc/arm-none-eabi/8.3.1/../../../../arm-none-eabi/lib/thumb/v7e-m+dp/hard\libcr_nohost_nf.a(__sys_flen.o)
 .data          0x00000000        0x0 c:/nxp/mcuxpressoide_11.1.1_3241/ide/plugins/com.nxp.mcuxpresso.tools.win32_11.1.0.202001081728/tools/bin/../lib/gcc/arm-none-eabi/8.3.1/../../../../arm-none-eabi/lib/thumb/v7e-m+dp/hard\libcr_nohost_nf.a(__sys_flen.o)
 .bss           0x00000000        0x0 c:/nxp/mcuxpressoide_11.1.1_3241/ide/plugins/com.nxp.mcuxpresso.tools.win32_11.1.0.202001081728/tools/bin/../lib/gcc/arm-none-eabi/8.3.1/../../../../arm-none-eabi/lib/thumb/v7e-m+dp/hard\libcr_nohost_nf.a(__sys_flen.o)
 .text          0x00000000        0x0 c:/nxp/mcuxpressoide_11.1.1_3241/ide/plugins/com.nxp.mcuxpresso.tools.win32_11.1.0.202001081728/tools/bin/../lib/gcc/arm-none-eabi/8.3.1/../../../../arm-none-eabi/lib/thumb/v7e-m+dp/hard\libcr_nohost_nf.a(__sys_istty.o)
 .data          0x00000000        0x0 c:/nxp/mcuxpressoide_11.1.1_3241/ide/plugins/com.nxp.mcuxpresso.tools.win32_11.1.0.202001081728/tools/bin/../lib/gcc/arm-none-eabi/8.3.1/../../../../arm-none-eabi/lib/thumb/v7e-m+dp/hard\libcr_nohost_nf.a(__sys_istty.o)
 .bss           0x00000000        0x0 c:/nxp/mcuxpressoide_11.1.1_3241/ide/plugins/com.nxp.mcuxpresso.tools.win32_11.1.0.202001081728/tools/bin/../lib/gcc/arm-none-eabi/8.3.1/../../../../arm-none-eabi/lib/thumb/v7e-m+dp/hard\libcr_nohost_nf.a(__sys_istty.o)
 .text          0x00000000        0x0 c:/nxp/mcuxpressoide_11.1.1_3241/ide/plugins/com.nxp.mcuxpresso.tools.win32_11.1.0.202001081728/tools/bin/../lib/gcc/arm-none-eabi/8.3.1/../../../../arm-none-eabi/lib/thumb/v7e-m+dp/hard\libcr_nohost_nf.a(__sys_read.o)
 .data          0x00000000        0x0 c:/nxp/mcuxpressoide_11.1.1_3241/ide/plugins/com.nxp.mcuxpresso.tools.win32_11.1.0.202001081728/tools/bin/../lib/gcc/arm-none-eabi/8.3.1/../../../../arm-none-eabi/lib/thumb/v7e-m+dp/hard\libcr_nohost_nf.a(__sys_read.o)
 .bss           0x00000000        0x0 c:/nxp/mcuxpressoide_11.1.1_3241/ide/plugins/com.nxp.mcuxpresso.tools.win32_11.1.0.202001081728/tools/bin/../lib/gcc/arm-none-eabi/8.3.1/../../../../arm-none-eabi/lib/thumb/v7e-m+dp/hard\libcr_nohost_nf.a(__sys_read.o)
 .text.__sys_read
                0x00000000        0x4 c:/nxp/mcuxpressoide_11.1.1_3241/ide/plugins/com.nxp.mcuxpresso.tools.win32_11.1.0.202001081728/tools/bin/../lib/gcc/arm-none-eabi/8.3.1/../../../../arm-none-eabi/lib/thumb/v7e-m+dp/hard\libcr_nohost_nf.a(__sys_read.o)
 .comment       0x00000000       0x77 c:/nxp/mcuxpressoide_11.1.1_3241/ide/plugins/com.nxp.mcuxpresso.tools.win32_11.1.0.202001081728/tools/bin/../lib/gcc/arm-none-eabi/8.3.1/../../../../arm-none-eabi/lib/thumb/v7e-m+dp/hard\libcr_nohost_nf.a(__sys_read.o)
 .ARM.attributes
                0x00000000       0x32 c:/nxp/mcuxpressoide_11.1.1_3241/ide/plugins/com.nxp.mcuxpresso.tools.win32_11.1.0.202001081728/tools/bin/../lib/gcc/arm-none-eabi/8.3.1/../../../../arm-none-eabi/lib/thumb/v7e-m+dp/hard\libcr_nohost_nf.a(__sys_read.o)
 .text          0x00000000        0x0 c:/nxp/mcuxpressoide_11.1.1_3241/ide/plugins/com.nxp.mcuxpresso.tools.win32_11.1.0.202001081728/tools/bin/../lib/gcc/arm-none-eabi/8.3.1/../../../../arm-none-eabi/lib/thumb/v7e-m+dp/hard\libcr_nohost_nf.a(__sys_readc.o)
 .data          0x00000000        0x0 c:/nxp/mcuxpressoide_11.1.1_3241/ide/plugins/com.nxp.mcuxpresso.tools.win32_11.1.0.202001081728/tools/bin/../lib/gcc/arm-none-eabi/8.3.1/../../../../arm-none-eabi/lib/thumb/v7e-m+dp/hard\libcr_nohost_nf.a(__sys_readc.o)
 .bss           0x00000000        0x0 c:/nxp/mcuxpressoide_11.1.1_3241/ide/plugins/com.nxp.mcuxpresso.tools.win32_11.1.0.202001081728/tools/bin/../lib/gcc/arm-none-eabi/8.3.1/../../../../arm-none-eabi/lib/thumb/v7e-m+dp/hard\libcr_nohost_nf.a(__sys_readc.o)
 .text.__sys_readc
                0x00000000        0x6 c:/nxp/mcuxpressoide_11.1.1_3241/ide/plugins/com.nxp.mcuxpresso.tools.win32_11.1.0.202001081728/tools/bin/../lib/gcc/arm-none-eabi/8.3.1/../../../../arm-none-eabi/lib/thumb/v7e-m+dp/hard\libcr_nohost_nf.a(__sys_readc.o)
 .comment       0x00000000       0x77 c:/nxp/mcuxpressoide_11.1.1_3241/ide/plugins/com.nxp.mcuxpresso.tools.win32_11.1.0.202001081728/tools/bin/../lib/gcc/arm-none-eabi/8.3.1/../../../../arm-none-eabi/lib/thumb/v7e-m+dp/hard\libcr_nohost_nf.a(__sys_readc.o)
 .ARM.attributes
                0x00000000       0x32 c:/nxp/mcuxpressoide_11.1.1_3241/ide/plugins/com.nxp.mcuxpresso.tools.win32_11.1.0.202001081728/tools/bin/../lib/gcc/arm-none-eabi/8.3.1/../../../../arm-none-eabi/lib/thumb/v7e-m+dp/hard\libcr_nohost_nf.a(__sys_readc.o)
 .text          0x00000000        0x0 c:/nxp/mcuxpressoide_11.1.1_3241/ide/plugins/com.nxp.mcuxpresso.tools.win32_11.1.0.202001081728/tools/bin/../lib/gcc/arm-none-eabi/8.3.1/../../../../arm-none-eabi/lib/thumb/v7e-m+dp/hard\libcr_nohost_nf.a(__sys_remove.o)
 .data          0x00000000        0x0 c:/nxp/mcuxpressoide_11.1.1_3241/ide/plugins/com.nxp.mcuxpresso.tools.win32_11.1.0.202001081728/tools/bin/../lib/gcc/arm-none-eabi/8.3.1/../../../../arm-none-eabi/lib/thumb/v7e-m+dp/hard\libcr_nohost_nf.a(__sys_remove.o)
 .bss           0x00000000        0x0 c:/nxp/mcuxpressoide_11.1.1_3241/ide/plugins/com.nxp.mcuxpresso.tools.win32_11.1.0.202001081728/tools/bin/../lib/gcc/arm-none-eabi/8.3.1/../../../../arm-none-eabi/lib/thumb/v7e-m+dp/hard\libcr_nohost_nf.a(__sys_remove.o)
 .text          0x00000000        0x0 c:/nxp/mcuxpressoide_11.1.1_3241/ide/plugins/com.nxp.mcuxpresso.tools.win32_11.1.0.202001081728/tools/bin/../lib/gcc/arm-none-eabi/8.3.1/../../../../arm-none-eabi/lib/thumb/v7e-m+dp/hard\libcr_nohost_nf.a(__sys_rename.o)
 .data          0x00000000        0x0 c:/nxp/mcuxpressoide_11.1.1_3241/ide/plugins/com.nxp.mcuxpresso.tools.win32_11.1.0.202001081728/tools/bin/../lib/gcc/arm-none-eabi/8.3.1/../../../../arm-none-eabi/lib/thumb/v7e-m+dp/hard\libcr_nohost_nf.a(__sys_rename.o)
 .bss           0x00000000        0x0 c:/nxp/mcuxpressoide_11.1.1_3241/ide/plugins/com.nxp.mcuxpresso.tools.win32_11.1.0.202001081728/tools/bin/../lib/gcc/arm-none-eabi/8.3.1/../../../../arm-none-eabi/lib/thumb/v7e-m+dp/hard\libcr_nohost_nf.a(__sys_rename.o)
 .text.__sys_rename
                0x00000000        0x6 c:/nxp/mcuxpressoide_11.1.1_3241/ide/plugins/com.nxp.mcuxpresso.tools.win32_11.1.0.202001081728/tools/bin/../lib/gcc/arm-none-eabi/8.3.1/../../../../arm-none-eabi/lib/thumb/v7e-m+dp/hard\libcr_nohost_nf.a(__sys_rename.o)
 .comment       0x00000000       0x77 c:/nxp/mcuxpressoide_11.1.1_3241/ide/plugins/com.nxp.mcuxpresso.tools.win32_11.1.0.202001081728/tools/bin/../lib/gcc/arm-none-eabi/8.3.1/../../../../arm-none-eabi/lib/thumb/v7e-m+dp/hard\libcr_nohost_nf.a(__sys_rename.o)
 .ARM.attributes
                0x00000000       0x32 c:/nxp/mcuxpressoide_11.1.1_3241/ide/plugins/com.nxp.mcuxpresso.tools.win32_11.1.0.202001081728/tools/bin/../lib/gcc/arm-none-eabi/8.3.1/../../../../arm-none-eabi/lib/thumb/v7e-m+dp/hard\libcr_nohost_nf.a(__sys_rename.o)
 .text          0x00000000        0x0 c:/nxp/mcuxpressoide_11.1.1_3241/ide/plugins/com.nxp.mcuxpresso.tools.win32_11.1.0.202001081728/tools/bin/../lib/gcc/arm-none-eabi/8.3.1/../../../../arm-none-eabi/lib/thumb/v7e-m+dp/hard\libcr_nohost_nf.a(__sys_seek.o)
 .data          0x00000000        0x0 c:/nxp/mcuxpressoide_11.1.1_3241/ide/plugins/com.nxp.mcuxpresso.tools.win32_11.1.0.202001081728/tools/bin/../lib/gcc/arm-none-eabi/8.3.1/../../../../arm-none-eabi/lib/thumb/v7e-m+dp/hard\libcr_nohost_nf.a(__sys_seek.o)
 .bss           0x00000000        0x0 c:/nxp/mcuxpressoide_11.1.1_3241/ide/plugins/com.nxp.mcuxpresso.tools.win32_11.1.0.202001081728/tools/bin/../lib/gcc/arm-none-eabi/8.3.1/../../../../arm-none-eabi/lib/thumb/v7e-m+dp/hard\libcr_nohost_nf.a(__sys_seek.o)
 .text          0x00000000        0x0 c:/nxp/mcuxpressoide_11.1.1_3241/ide/plugins/com.nxp.mcuxpresso.tools.win32_11.1.0.202001081728/tools/bin/../lib/gcc/arm-none-eabi/8.3.1/../../../../arm-none-eabi/lib/thumb/v7e-m+dp/hard\libcr_nohost_nf.a(__sys_tmpnam.o)
 .data          0x00000000        0x0 c:/nxp/mcuxpressoide_11.1.1_3241/ide/plugins/com.nxp.mcuxpresso.tools.win32_11.1.0.202001081728/tools/bin/../lib/gcc/arm-none-eabi/8.3.1/../../../../arm-none-eabi/lib/thumb/v7e-m+dp/hard\libcr_nohost_nf.a(__sys_tmpnam.o)
 .bss           0x00000000        0x0 c:/nxp/mcuxpressoide_11.1.1_3241/ide/plugins/com.nxp.mcuxpresso.tools.win32_11.1.0.202001081728/tools/bin/../lib/gcc/arm-none-eabi/8.3.1/../../../../arm-none-eabi/lib/thumb/v7e-m+dp/hard\libcr_nohost_nf.a(__sys_tmpnam.o)
 .text          0x00000000        0x0 c:/nxp/mcuxpressoide_11.1.1_3241/ide/plugins/com.nxp.mcuxpresso.tools.win32_11.1.0.202001081728/tools/bin/../lib/gcc/arm-none-eabi/8.3.1/../../../../arm-none-eabi/lib/thumb/v7e-m+dp/hard\libcr_nohost_nf.a(__sys_write.o)
 .data          0x00000000        0x0 c:/nxp/mcuxpressoide_11.1.1_3241/ide/plugins/com.nxp.mcuxpresso.tools.win32_11.1.0.202001081728/tools/bin/../lib/gcc/arm-none-eabi/8.3.1/../../../../arm-none-eabi/lib/thumb/v7e-m+dp/hard\libcr_nohost_nf.a(__sys_write.o)
 .bss           0x00000000        0x0 c:/nxp/mcuxpressoide_11.1.1_3241/ide/plugins/com.nxp.mcuxpresso.tools.win32_11.1.0.202001081728/tools/bin/../lib/gcc/arm-none-eabi/8.3.1/../../../../arm-none-eabi/lib/thumb/v7e-m+dp/hard\libcr_nohost_nf.a(__sys_write.o)

Memory Configuration

Name             Origin             Length             Attributes
BOARD_FLASH      0x60000000         0x00800000         xr
BOARD_SDRAM      0x80000000         0x01e00000         xrw
NCACHE_REGION    0x81e00000         0x00200000         xrw
SRAM_DTC         0x20000000         0x00010000         xrw
SRAM_ITC         0x00000000         0x00010000         xrw
SRAM_OC          0x20200000         0x00020000         xrw
*default*        0x00000000         0xffffffff

Linker script and memory map

LOAD ./xip/evkmimxrt1020_flexspi_nor_config.o
LOAD ./xip/fsl_flexspi_nor_boot.o
LOAD ./utilities/fsl_assert.o
LOAD ./utilities/fsl_debug_console.o
LOAD ./utilities/fsl_str.o
LOAD ./startup/startup_mimxrt1021.o
LOAD ./source/bl_api.o
LOAD ./source/hello_world.o
LOAD ./source/semihost_hardfault.o
LOAD ./drivers/fsl_clock.o
LOAD ./drivers/fsl_common.o
LOAD ./drivers/fsl_gpio.o
LOAD ./drivers/fsl_lpuart.o
LOAD ./device/system_MIMXRT1021.o
LOAD ./component/uart/lpuart_adapter.o
LOAD ./component/serial_manager/serial_manager.o
LOAD ./component/serial_manager/serial_port_uart.o
LOAD ./component/lists/generic_list.o
LOAD ./board/board.o
LOAD ./board/clock_config.o
LOAD ./board/dcd.o
LOAD ./board/pin_mux.o
START GROUP
LOAD c:/nxp/mcuxpressoide_11.1.1_3241/ide/plugins/com.nxp.mcuxpresso.tools.win32_11.1.0.202001081728/tools/bin/../lib/gcc/arm-none-eabi/8.3.1/../../../../arm-none-eabi/lib/thumb/v7e-m+dp/hard\libcr_nohost_nf.a
LOAD c:/nxp/mcuxpressoide_11.1.1_3241/ide/plugins/com.nxp.mcuxpresso.tools.win32_11.1.0.202001081728/tools/bin/../lib/gcc/arm-none-eabi/8.3.1/../../../../arm-none-eabi/lib/thumb/v7e-m+dp/hard\libcr_c.a
LOAD c:/nxp/mcuxpressoide_11.1.1_3241/ide/plugins/com.nxp.mcuxpresso.tools.win32_11.1.0.202001081728/tools/bin/../lib/gcc/arm-none-eabi/8.3.1/thumb/v7e-m+dp/hard\libcr_eabihelpers.a
LOAD c:/nxp/mcuxpressoide_11.1.1_3241/ide/plugins/com.nxp.mcuxpresso.tools.win32_11.1.0.202001081728/tools/bin/../lib/gcc/arm-none-eabi/8.3.1/thumb/v7e-m+dp/hard\libgcc.a
END GROUP
                0x60000000                __base_BOARD_FLASH = 0x60000000
                0x60000000                __base_Flash = 0x60000000
                0x60800000                __top_BOARD_FLASH = 0x60800000
                0x60800000                __top_Flash = 0x60800000
                0x80000000                __base_BOARD_SDRAM = 0x80000000
                0x80000000                __base_RAM = 0x80000000
                0x81e00000                __top_BOARD_SDRAM = 0x81e00000
                0x81e00000                __top_RAM = 0x81e00000
                0x81e00000                __base_NCACHE_REGION = 0x81e00000
                0x81e00000                __base_RAM2 = 0x81e00000
                0x82000000                __top_NCACHE_REGION = 0x82000000
                0x82000000                __top_RAM2 = 0x82000000
                0x20000000                __base_SRAM_DTC = 0x20000000
                0x20000000                __base_RAM3 = 0x20000000
                0x20010000                __top_SRAM_DTC = 0x20010000
                0x20010000                __top_RAM3 = 0x20010000
                0x00000000                __base_SRAM_ITC = 0x0
                0x00000000                __base_RAM4 = 0x0
                0x00010000                __top_SRAM_ITC = 0x10000
                0x00010000                __top_RAM4 = 0x10000
                0x20200000                __base_SRAM_OC = 0x20200000
                0x20200000                __base_RAM5 = 0x20200000
                0x20220000                __top_SRAM_OC = 0x20220000
                0x20220000                __top_RAM5 = 0x20220000

.boot_hdr       0x60000000     0x2000
 FILL mask 0xff
                0x60000000                __boot_hdr_start__ = ABSOLUTE (.)
 *(SORT_BY_ALIGNMENT(.boot_hdr.conf))
 .boot_hdr.conf
                0x60000000      0x200 ./xip/evkmimxrt1020_flexspi_nor_config.o
                0x60000000                qspiflash_config
                0x00001000                . = 0x1000
 *fill*         0x60000200      0xe00 ff
 *(SORT_BY_ALIGNMENT(.boot_hdr.ivt))
 .boot_hdr.ivt  0x60001000       0x20 ./xip/fsl_flexspi_nor_boot.o
                0x60001000                image_vector_table
                0x00001020                . = 0x1020
 *(SORT_BY_ALIGNMENT(.boot_hdr.boot_data))
 .boot_hdr.boot_data
                0x60001020       0x10 ./xip/fsl_flexspi_nor_boot.o
                0x60001020                boot_data
                0x00001030                . = 0x1030
 *(SORT_BY_ALIGNMENT(.boot_hdr.dcd_data))
 .boot_hdr.dcd_data
                0x60001030      0x400 ./board/dcd.o
                0x60001030                dcd_data
                0x60001430                __boot_hdr_end__ = ABSOLUTE (.)
                0x00002000                . = 0x2000
 *fill*         0x60001430      0xbd0 ff

.text           0x60002000     0x3fd8
 FILL mask 0xff
                0x60002000                __vectors_start__ = ABSOLUTE (.)
 *(SORT_BY_ALIGNMENT(.isr_vector))
 .isr_vector    0x60002000      0x278 ./startup/startup_mimxrt1021.o
                0x60002000                g_pfnVectors
                0x60002000                __Vectors
                0x60002278                . = ALIGN (0x4)
                0x60002278                __section_table_start = .
                0x60002278                __data_section_table = .
                0x60002278        0x4 LONG 0x60005fd8 LOADADDR (.data)
                0x6000227c        0x4 LONG 0x80000000 ADDR (.data)
                0x60002280        0x4 LONG 0x4 SIZEOF (.data)
                0x60002284        0x4 LONG 0x60005fd8 LOADADDR (.data_RAM2)
                0x60002288        0x4 LONG 0x81e00000 ADDR (.data_RAM2)
                0x6000228c        0x4 LONG 0x0 SIZEOF (.data_RAM2)
                0x60002290        0x4 LONG 0x60005fd8 LOADADDR (.data_RAM3)
                0x60002294        0x4 LONG 0x20000000 ADDR (.data_RAM3)
                0x60002298        0x4 LONG 0x0 SIZEOF (.data_RAM3)
                0x6000229c        0x4 LONG 0x60005fd8 LOADADDR (.data_RAM4)
                0x600022a0        0x4 LONG 0x0 ADDR (.data_RAM4)
                0x600022a4        0x4 LONG 0x0 SIZEOF (.data_RAM4)
                0x600022a8        0x4 LONG 0x60005fd8 LOADADDR (.data_RAM5)
                0x600022ac        0x4 LONG 0x20200000 ADDR (.data_RAM5)
                0x600022b0        0x4 LONG 0x0 SIZEOF (.data_RAM5)
                0x600022b4                __data_section_table_end = .
                0x600022b4                __bss_section_table = .
                0x600022b4        0x4 LONG 0x80000004 ADDR (.bss)
                0x600022b8        0x4 LONG 0x10c SIZEOF (.bss)
                0x600022bc        0x4 LONG 0x81e00000 ADDR (.bss_RAM2)
                0x600022c0        0x4 LONG 0x1c SIZEOF (.bss_RAM2)
                0x600022c4        0x4 LONG 0x20000000 ADDR (.bss_RAM3)
                0x600022c8        0x4 LONG 0x0 SIZEOF (.bss_RAM3)
                0x600022cc        0x4 LONG 0x0 ADDR (.bss_RAM4)
                0x600022d0        0x4 LONG 0x0 SIZEOF (.bss_RAM4)
                0x600022d4        0x4 LONG 0x20200000 ADDR (.bss_RAM5)
                0x600022d8        0x4 LONG 0x0 SIZEOF (.bss_RAM5)
                0x600022dc                __bss_section_table_end = .
                0x600022dc                __section_table_end = .
 *(SORT_BY_ALIGNMENT(.after_vectors*))
 .after_vectors.reset
                0x600022dc       0x4c ./startup/startup_mimxrt1021.o
                0x600022dc                ResetISR
 .after_vectors.init_data
                0x60002328       0x1e ./startup/startup_mimxrt1021.o
                0x60002328                data_init
 .after_vectors.init_bss
                0x60002346       0x12 ./startup/startup_mimxrt1021.o
                0x60002346                bss_init
 .after_vectors
                0x60002358       0x14 ./startup/startup_mimxrt1021.o
                0x60002358                NMI_Handler
                0x6000235c                MemManage_Handler
                0x6000235e                BusFault_Handler
                0x60002360                UsageFault_Handler
                0x60002362                SVC_Handler
                0x60002364                DebugMon_Handler
                0x60002366                PendSV_Handler
                0x60002368                SysTick_Handler
                0x6000236a                Reserved102_DriverIRQHandler
                0x6000236a                Reserved152_DriverIRQHandler
                0x6000236a                DMA13_DMA29_DriverIRQHandler
                0x6000236a                CCM_2_DriverIRQHandler
                0x6000236a                LPSPI4_DriverIRQHandler
                0x6000236a                SEMC_DriverIRQHandler
                0x6000236a                SPDIF_DriverIRQHandler
                0x6000236a                PIT_DriverIRQHandler
                0x6000236a                FLEXRAM_DriverIRQHandler
                0x6000236a                SAI3_RX_DriverIRQHandler
                0x6000236a                USB_PHY_DriverIRQHandler
                0x6000236a                GPIO3_Combined_0_15_DriverIRQHandler
                0x6000236a                Reserved82_DriverIRQHandler
                0x6000236a                DMA7_DMA23_DriverIRQHandler
                0x6000236a                BEE_DriverIRQHandler
                0x6000236a                LPI2C3_DriverIRQHandler
                0x6000236a                GPR_IRQ_DriverIRQHandler
                0x6000236a                Reserved103_DriverIRQHandler
                0x6000236a                PWM2_FAULT_DriverIRQHandler
                0x6000236a                Reserved56_DriverIRQHandler
                0x6000236a                DMA14_DMA30_DriverIRQHandler
                0x6000236a                TMR1_DriverIRQHandler
                0x6000236a                TRNG_DriverIRQHandler
                0x6000236a                ENET_1588_Timer_DriverIRQHandler
                0x6000236a                GPIO2_Combined_16_31_DriverIRQHandler
                0x6000236a                Reserved143_DriverIRQHandler
                0x6000236a                LPSPI2_DriverIRQHandler
                0x6000236a                Reserved151_DriverIRQHandler
                0x6000236a                DMA0_DMA16_DriverIRQHandler
                0x6000236a                IntDefaultHandler
                0x6000236a                DMA2_DMA18_DriverIRQHandler
                0x6000236a                SRC_DriverIRQHandler
                0x6000236a                GPIO1_INT4_DriverIRQHandler
                0x6000236a                Reserved144_DriverIRQHandler
                0x6000236a                USDHC1_DriverIRQHandler
                0x6000236a                EWM_DriverIRQHandler
                0x6000236a                KPP_DriverIRQHandler
                0x6000236a                FLEXIO1_DriverIRQHandler
                0x6000236a                ENET_DriverIRQHandler
                0x6000236a                Reserved78_DriverIRQHandler
                0x6000236a                ENC2_DriverIRQHandler
                0x6000236a                ADC_ETC_IRQ2_DriverIRQHandler
                0x6000236a                GPIO1_Combined_16_31_DriverIRQHandler
                0x6000236a                GPIO1_INT7_DriverIRQHandler
                0x6000236a                SAI1_DriverIRQHandler
                0x6000236a                DCDC_DriverIRQHandler
                0x6000236a                DMA12_DMA28_DriverIRQHandler
                0x6000236a                ADC_ETC_ERROR_IRQ_DriverIRQHandler
                0x6000236a                ACMP2_DriverIRQHandler
                0x6000236a                GPIO5_Combined_0_15_DriverIRQHandler
                0x6000236a                GPIO1_INT0_DriverIRQHandler
                0x6000236a                GPIO1_INT2_DriverIRQHandler
                0x6000236a                RTWDOG_DriverIRQHandler
                0x6000236a                FLEXSPI_DriverIRQHandler
                0x6000236a                GPT2_DriverIRQHandler
                0x6000236a                DMA10_DMA26_DriverIRQHandler
                0x6000236a                PWM2_1_DriverIRQHandler
                0x6000236a                PWM1_1_DriverIRQHandler
                0x6000236a                ADC1_DriverIRQHandler
                0x6000236a                Reserved148_DriverIRQHandler
                0x6000236a                PWM1_0_DriverIRQHandler
                0x6000236a                DMA1_DMA17_DriverIRQHandler
                0x6000236a                ENC1_DriverIRQHandler
                0x6000236a                CAN2_DriverIRQHandler
                0x6000236a                DCP_DriverIRQHandler
                0x6000236a                CTI0_ERROR_DriverIRQHandler
                0x6000236a                DMA8_DMA24_DriverIRQHandler
                0x6000236a                GPT1_DriverIRQHandler
                0x6000236a                ACMP3_DriverIRQHandler
                0x6000236a                DMA6_DMA22_DriverIRQHandler
                0x6000236a                CSU_DriverIRQHandler
                0x6000236a                GPIO1_INT5_DriverIRQHandler
                0x6000236a                TMR2_DriverIRQHandler
                0x6000236a                CTI1_ERROR_DriverIRQHandler
                0x6000236a                GPIO1_Combined_0_15_DriverIRQHandler
                0x6000236a                USDHC2_DriverIRQHandler
                0x6000236a                Reserved87_DriverIRQHandler
                0x6000236a                SAI2_DriverIRQHandler
                0x6000236a                CORE_DriverIRQHandler
                0x6000236a                Reserved147_DriverIRQHandler
                0x6000236a                WDOG1_DriverIRQHandler
                0x6000236a                DMA11_DMA27_DriverIRQHandler
                0x6000236a                PWM2_3_DriverIRQHandler
                0x6000236a                Reserved60_DriverIRQHandler
                0x6000236a                XBAR1_IRQ_2_3_DriverIRQHandler
                0x6000236a                SNVS_HP_WRAPPER_TZ_DriverIRQHandler
                0x6000236a                GPIO3_Combined_16_31_DriverIRQHandler
                0x6000236a                PWM1_FAULT_DriverIRQHandler
                0x6000236a                LPI2C1_DriverIRQHandler
                0x6000236a                PWM2_2_DriverIRQHandler
                0x6000236a                Reserved128_DriverIRQHandler
                0x6000236a                DMA4_DMA20_DriverIRQHandler
                0x6000236a                DMA9_DMA25_DriverIRQHandler
                0x6000236a                SNVS_HP_WRAPPER_DriverIRQHandler
                0x6000236a                XBAR1_IRQ_0_1_DriverIRQHandler
                0x6000236a                ADC_ETC_IRQ1_DriverIRQHandler
                0x6000236a                LPSPI1_DriverIRQHandler
                0x6000236a                DMA3_DMA19_DriverIRQHandler
                0x6000236a                GPIO1_INT3_DriverIRQHandler
                0x6000236a                DCP_VMI_DriverIRQHandler
                0x6000236a                LPI2C4_DriverIRQHandler
                0x6000236a                GPC_DriverIRQHandler
                0x6000236a                Reserved123_DriverIRQHandler
                0x6000236a                GPIO2_Combined_0_15_DriverIRQHandler
                0x6000236a                PWM1_2_DriverIRQHandler
                0x6000236a                USB_OTG1_DriverIRQHandler
                0x6000236a                TEMP_LOW_HIGH_DriverIRQHandler
                0x6000236a                SAI3_TX_DriverIRQHandler
                0x6000236a                WDOG2_DriverIRQHandler
                0x6000236a                Reserved68_DriverIRQHandler
                0x6000236a                PMU_DriverIRQHandler
                0x6000236a                Reserved59_DriverIRQHandler
                0x6000236a                GPIO5_Combined_16_31_DriverIRQHandler
                0x6000236a                DMA5_DMA21_DriverIRQHandler
                0x6000236a                CCM_1_DriverIRQHandler
                0x6000236a                ADC2_DriverIRQHandler
                0x6000236a                Reserved58_DriverIRQHandler
                0x6000236a                Reserved115_DriverIRQHandler
                0x6000236a                TEMP_PANIC_DriverIRQHandler
                0x6000236a                ACMP4_DriverIRQHandler
                0x6000236a                DMA15_DMA31_DriverIRQHandler
                0x6000236a                Reserved107_DriverIRQHandler
                0x6000236a                LPSPI3_DriverIRQHandler
                0x6000236a                PWM1_3_DriverIRQHandler
                0x6000236a                Reserved70_DriverIRQHandler
                0x6000236a                ACMP1_DriverIRQHandler
                0x6000236a                LPI2C2_DriverIRQHandler
                0x6000236a                Reserved86_DriverIRQHandler
                0x6000236a                DMA_ERROR_DriverIRQHandler
                0x6000236a                ADC_ETC_IRQ0_DriverIRQHandler
                0x6000236a                CAN1_DriverIRQHandler
                0x6000236a                GPIO1_INT6_DriverIRQHandler
                0x6000236a                GPIO1_INT1_DriverIRQHandler
                0x6000236a                PWM2_0_DriverIRQHandler
                0x6000236a                SNVS_LP_WRAPPER_DriverIRQHandler
 *(SORT_BY_ALIGNMENT(.text*))
 .text.__assertion_failed
                0x6000236c       0x18 ./utilities/fsl_assert.o
                0x6000236c                __assertion_failed
 .text.DbgConsole_SendDataReliable
                0x60002384       0x64 ./utilities/fsl_debug_console.o
                0x60002384                DbgConsole_SendDataReliable
 .text.DbgConsole_Init
                0x600023e8      0x118 ./utilities/fsl_debug_console.o
                0x600023e8                DbgConsole_Init
 .text.DbgConsole_Printf
                0x60002500       0x70 ./utilities/fsl_debug_console.o
                0x60002500                DbgConsole_Printf
 .text.main     0x60002570      0x150 ./source/hello_world.o
                0x60002570                main
 .text.CLOCK_GetOscFreq
                0x600026c0       0x30 ./drivers/fsl_clock.o
 .text.CLOCK_InitExternalClk
                0x600026f0       0x6c ./drivers/fsl_clock.o
                0x600026f0                CLOCK_InitExternalClk
 .text.CLOCK_SwitchOsc
                0x6000275c       0x34 ./drivers/fsl_clock.o
                0x6000275c                CLOCK_SwitchOsc
 .text.CLOCK_InitRcOsc24M
                0x60002790       0x24 ./drivers/fsl_clock.o
                0x60002790                CLOCK_InitRcOsc24M
 .text.CLOCK_DeinitAudioPll
                0x600027b4       0x1c ./drivers/fsl_clock.o
                0x600027b4                CLOCK_DeinitAudioPll
 .text.CLOCK_InitEnetPll
                0x600027d0       0xa4 ./drivers/fsl_clock.o
                0x600027d0                CLOCK_InitEnetPll
 .text.CLOCK_GetPllFreq
                0x60002874      0x250 ./drivers/fsl_clock.o
                0x60002874                CLOCK_GetPllFreq
 .text.CLOCK_ControlGate
                0x60002ac4       0x64 ./drivers/fsl_lpuart.o
 .text.LPUART_GetInstance
                0x60002b28       0x4c ./drivers/fsl_lpuart.o
                0x60002b28                LPUART_GetInstance
 .text.LPUART_Init
                0x60002b74      0x310 ./drivers/fsl_lpuart.o
                0x60002b74                LPUART_Init
 .text.LPUART_GetDefaultConfig
                0x60002e84       0x88 ./drivers/fsl_lpuart.o
                0x60002e84                LPUART_GetDefaultConfig
 .text.LPUART_WriteBlocking
                0x60002f0c       0x68 ./drivers/fsl_lpuart.o
                0x60002f0c                LPUART_WriteBlocking
 .text.LPUART1_DriverIRQHandler
                0x60002f74       0x28 ./drivers/fsl_lpuart.o
                0x60002f74                LPUART1_DriverIRQHandler
 .text.LPUART2_DriverIRQHandler
                0x60002f9c       0x28 ./drivers/fsl_lpuart.o
                0x60002f9c                LPUART2_DriverIRQHandler
 .text.LPUART3_DriverIRQHandler
                0x60002fc4       0x28 ./drivers/fsl_lpuart.o
                0x60002fc4                LPUART3_DriverIRQHandler
 .text.LPUART4_DriverIRQHandler
                0x60002fec       0x28 ./drivers/fsl_lpuart.o
                0x60002fec                LPUART4_DriverIRQHandler
 .text.LPUART5_DriverIRQHandler
                0x60003014       0x28 ./drivers/fsl_lpuart.o
                0x60003014                LPUART5_DriverIRQHandler
 .text.LPUART6_DriverIRQHandler
                0x6000303c       0x28 ./drivers/fsl_lpuart.o
                0x6000303c                LPUART6_DriverIRQHandler
 .text.LPUART7_DriverIRQHandler
                0x60003064       0x28 ./drivers/fsl_lpuart.o
                0x60003064                LPUART7_DriverIRQHandler
 .text.LPUART8_DriverIRQHandler
                0x6000308c       0x28 ./drivers/fsl_lpuart.o
                0x6000308c                LPUART8_DriverIRQHandler
 .text.SystemInit
                0x600030b4      0x1c8 ./device/system_MIMXRT1021.o
                0x600030b4                SystemInit
 .text.HAL_UartInit
                0x6000327c      0x100 ./component/uart/lpuart_adapter.o
                0x6000327c                HAL_UartInit
 .text.HAL_UartSendBlocking
                0x6000337c       0x64 ./component/uart/lpuart_adapter.o
                0x6000337c                HAL_UartSendBlocking
 .text.SerialManager_Write
                0x600033e0       0x6c ./component/serial_manager/serial_manager.o
 .text.SerialManager_Init
                0x6000344c       0x74 ./component/serial_manager/serial_manager.o
                0x6000344c                SerialManager_Init
 .text.SerialManager_OpenWriteHandle
                0x600034c0       0x64 ./component/serial_manager/serial_manager.o
                0x600034c0                SerialManager_OpenWriteHandle
 .text.SerialManager_OpenReadHandle
                0x60003524       0x74 ./component/serial_manager/serial_manager.o
                0x60003524                SerialManager_OpenReadHandle
 .text.Serial_UartInit
                0x60003598       0x80 ./component/serial_manager/serial_port_uart.o
                0x60003598                Serial_UartInit
 .text.Serial_UartWrite
                0x60003618       0x58 ./component/serial_manager/serial_port_uart.o
                0x60003618                Serial_UartWrite
 .text.ARM_MPU_Enable
                0x60003670       0x3c ./board/board.o
 .text.ARM_MPU_Disable
                0x600036ac       0x34 ./board/board.o
 .text.CLOCK_GetMux
                0x600036e0       0x44 ./board/board.o
 .text.CLOCK_GetDiv
                0x60003724       0x44 ./board/board.o
 .text.CLOCK_GetOscFreq
                0x60003768       0x30 ./board/board.o
 .text.BOARD_DebugConsoleSrcFreq
                0x60003798       0x64 ./board/board.o
                0x60003798                BOARD_DebugConsoleSrcFreq
 .text.BOARD_ConfigMPU
                0x600037fc      0x2c0 ./board/board.o
                0x600037fc                BOARD_ConfigMPU
 .text.CLOCK_SetMux
                0x60003abc       0x9c ./board/clock_config.o
 .text.CLOCK_SetDiv
                0x60003b58       0x9c ./board/clock_config.o
 .text.CLOCK_ControlGate
                0x60003bf4       0x64 ./board/clock_config.o
 .text.CLOCK_SetXtalFreq
                0x60003c58       0x20 ./board/clock_config.o
 .text.CLOCK_SetRtcXtalFreq
                0x60003c78       0x20 ./board/clock_config.o
 .text.IOMUXC_EnableMode
                0x60003c98       0x48 ./board/clock_config.o
 .text.IOMUXC_MQSConfig
                0x60003ce0       0x44 ./board/clock_config.o
 .text.BOARD_BootClockRUN
                0x60003d24      0x498 ./board/clock_config.o
                0x60003d24                BOARD_BootClockRUN
 .text.CLOCK_ControlGate
                0x600041bc       0x64 ./board/pin_mux.o
 .text.BOARD_InitPins
                0x60004220       0xac ./board/pin_mux.o
                0x60004220                BOARD_InitPins
 .text._initio  0x600042cc       0x78 c:/nxp/mcuxpressoide_11.1.1_3241/ide/plugins/com.nxp.mcuxpresso.tools.win32_11.1.0.202001081728/tools/bin/../lib/gcc/arm-none-eabi/8.3.1/../../../../arm-none-eabi/lib/thumb/v7e-m+dp/hard\libcr_c.a(initio.o)
                0x600042cc                _initio
 .text.setvbuf  0x60004344       0x40 c:/nxp/mcuxpressoide_11.1.1_3241/ide/plugins/com.nxp.mcuxpresso.tools.win32_11.1.0.202001081728/tools/bin/../lib/gcc/arm-none-eabi/8.3.1/../../../../arm-none-eabi/lib/thumb/v7e-m+dp/hard\libcr_c.a(setvbuf.o)
                0x60004344                setvbuf
 .text._Cwritebuf
                0x60004384       0x6c c:/nxp/mcuxpressoide_11.1.1_3241/ide/plugins/com.nxp.mcuxpresso.tools.win32_11.1.0.202001081728/tools/bin/../lib/gcc/arm-none-eabi/8.3.1/../../../../arm-none-eabi/lib/thumb/v7e-m+dp/hard\libcr_c.a(_writebuf.o)
                0x60004384                _Cwritebuf
 .text.fflush   0x600043f0       0x44 c:/nxp/mcuxpressoide_11.1.1_3241/ide/plugins/com.nxp.mcuxpresso.tools.win32_11.1.0.202001081728/tools/bin/../lib/gcc/arm-none-eabi/8.3.1/../../../../arm-none-eabi/lib/thumb/v7e-m+dp/hard\libcr_c.a(fflush.o)
                0x600043f0                fflush
 .text.fseek    0x60004434      0x100 c:/nxp/mcuxpressoide_11.1.1_3241/ide/plugins/com.nxp.mcuxpresso.tools.win32_11.1.0.202001081728/tools/bin/../lib/gcc/arm-none-eabi/8.3.1/../../../../arm-none-eabi/lib/thumb/v7e-m+dp/hard\libcr_c.a(fseek.o)
                0x60004434                fseek
 .text.ftell    0x60004534       0x48 c:/nxp/mcuxpressoide_11.1.1_3241/ide/plugins/com.nxp.mcuxpresso.tools.win32_11.1.0.202001081728/tools/bin/../lib/gcc/arm-none-eabi/8.3.1/../../../../arm-none-eabi/lib/thumb/v7e-m+dp/hard\libcr_c.a(ftell.o)
                0x60004534                ftell
 .text.DbgConsole_PrintCallback
                0x6000457c       0x64 ./utilities/fsl_debug_console.o
 .text.PrintGetWidth
                0x600045e0       0x6a ./utilities/fsl_str.o
 .text.PrintGetPrecision
                0x6000464a       0x8c ./utilities/fsl_str.o
 .text.PrintIsobpu
                0x600046d6       0x38 ./utilities/fsl_str.o
 .text.PrintIsdi
                0x6000470e       0x2c ./utilities/fsl_str.o
 .text.PrintOutputdifFobpu
                0x6000473a       0x42 ./utilities/fsl_str.o
 .text.PrintOutputxX
                0x6000477c       0x42 ./utilities/fsl_str.o
 .text.PrintIsfF
                0x600047be       0x2c ./utilities/fsl_str.o
 .text.PrintIsxX
                0x600047ea       0x2c ./utilities/fsl_str.o
 .text.PrintGetRadixFromobpu
                0x60004816       0x40 ./utilities/fsl_str.o
 .text.ConvertRadixNumToString
                0x60004856      0x118 ./utilities/fsl_str.o
 .text.StrFormatPrintf
                0x6000496e      0x286 ./utilities/fsl_str.o
                0x6000496e                StrFormatPrintf
 .text.DMA0_DMA16_IRQHandler
                0x60004bf4        0x8 ./startup/startup_mimxrt1021.o
                0x60004bf4                DMA0_DMA16_IRQHandler
 .text.DMA1_DMA17_IRQHandler
                0x60004bfc        0x8 ./startup/startup_mimxrt1021.o
                0x60004bfc                DMA1_DMA17_IRQHandler
 .text.DMA2_DMA18_IRQHandler
                0x60004c04        0x8 ./startup/startup_mimxrt1021.o
                0x60004c04                DMA2_DMA18_IRQHandler
 .text.DMA3_DMA19_IRQHandler
                0x60004c0c        0x8 ./startup/startup_mimxrt1021.o
                0x60004c0c                DMA3_DMA19_IRQHandler
 .text.DMA4_DMA20_IRQHandler
                0x60004c14        0x8 ./startup/startup_mimxrt1021.o
                0x60004c14                DMA4_DMA20_IRQHandler
 .text.DMA5_DMA21_IRQHandler
                0x60004c1c        0x8 ./startup/startup_mimxrt1021.o
                0x60004c1c                DMA5_DMA21_IRQHandler
 .text.DMA6_DMA22_IRQHandler
                0x60004c24        0x8 ./startup/startup_mimxrt1021.o
                0x60004c24                DMA6_DMA22_IRQHandler
 .text.DMA7_DMA23_IRQHandler
                0x60004c2c        0x8 ./startup/startup_mimxrt1021.o
                0x60004c2c                DMA7_DMA23_IRQHandler
 .text.DMA8_DMA24_IRQHandler
                0x60004c34        0x8 ./startup/startup_mimxrt1021.o
                0x60004c34                DMA8_DMA24_IRQHandler
 .text.DMA9_DMA25_IRQHandler
                0x60004c3c        0x8 ./startup/startup_mimxrt1021.o
                0x60004c3c                DMA9_DMA25_IRQHandler
 .text.DMA10_DMA26_IRQHandler
                0x60004c44        0x8 ./startup/startup_mimxrt1021.o
                0x60004c44                DMA10_DMA26_IRQHandler
 .text.DMA11_DMA27_IRQHandler
                0x60004c4c        0x8 ./startup/startup_mimxrt1021.o
                0x60004c4c                DMA11_DMA27_IRQHandler
 .text.DMA12_DMA28_IRQHandler
                0x60004c54        0x8 ./startup/startup_mimxrt1021.o
                0x60004c54                DMA12_DMA28_IRQHandler
 .text.DMA13_DMA29_IRQHandler
                0x60004c5c        0x8 ./startup/startup_mimxrt1021.o
                0x60004c5c                DMA13_DMA29_IRQHandler
 .text.DMA14_DMA30_IRQHandler
                0x60004c64        0x8 ./startup/startup_mimxrt1021.o
                0x60004c64                DMA14_DMA30_IRQHandler
 .text.DMA15_DMA31_IRQHandler
                0x60004c6c        0x8 ./startup/startup_mimxrt1021.o
                0x60004c6c                DMA15_DMA31_IRQHandler
 .text.DMA_ERROR_IRQHandler
                0x60004c74        0x8 ./startup/startup_mimxrt1021.o
                0x60004c74                DMA_ERROR_IRQHandler
 .text.CTI0_ERROR_IRQHandler
                0x60004c7c        0x8 ./startup/startup_mimxrt1021.o
                0x60004c7c                CTI0_ERROR_IRQHandler
 .text.CTI1_ERROR_IRQHandler
                0x60004c84        0x8 ./startup/startup_mimxrt1021.o
                0x60004c84                CTI1_ERROR_IRQHandler
 .text.CORE_IRQHandler
                0x60004c8c        0x8 ./startup/startup_mimxrt1021.o
                0x60004c8c                CORE_IRQHandler
 .text.LPUART1_IRQHandler
                0x60004c94        0x8 ./startup/startup_mimxrt1021.o
                0x60004c94                LPUART1_IRQHandler
 .text.LPUART2_IRQHandler
                0x60004c9c        0x8 ./startup/startup_mimxrt1021.o
                0x60004c9c                LPUART2_IRQHandler
 .text.LPUART3_IRQHandler
                0x60004ca4        0x8 ./startup/startup_mimxrt1021.o
                0x60004ca4                LPUART3_IRQHandler
 .text.LPUART4_IRQHandler
                0x60004cac        0x8 ./startup/startup_mimxrt1021.o
                0x60004cac                LPUART4_IRQHandler
 .text.LPUART5_IRQHandler
                0x60004cb4        0x8 ./startup/startup_mimxrt1021.o
                0x60004cb4                LPUART5_IRQHandler
 .text.LPUART6_IRQHandler
                0x60004cbc        0x8 ./startup/startup_mimxrt1021.o
                0x60004cbc                LPUART6_IRQHandler
 .text.LPUART7_IRQHandler
                0x60004cc4        0x8 ./startup/startup_mimxrt1021.o
                0x60004cc4                LPUART7_IRQHandler
 .text.LPUART8_IRQHandler
                0x60004ccc        0x8 ./startup/startup_mimxrt1021.o
                0x60004ccc                LPUART8_IRQHandler
 .text.LPI2C1_IRQHandler
                0x60004cd4        0x8 ./startup/startup_mimxrt1021.o
                0x60004cd4                LPI2C1_IRQHandler
 .text.LPI2C2_IRQHandler
                0x60004cdc        0x8 ./startup/startup_mimxrt1021.o
                0x60004cdc                LPI2C2_IRQHandler
 .text.LPI2C3_IRQHandler
                0x60004ce4        0x8 ./startup/startup_mimxrt1021.o
                0x60004ce4                LPI2C3_IRQHandler
 .text.LPI2C4_IRQHandler
                0x60004cec        0x8 ./startup/startup_mimxrt1021.o
                0x60004cec                LPI2C4_IRQHandler
 .text.LPSPI1_IRQHandler
                0x60004cf4        0x8 ./startup/startup_mimxrt1021.o
                0x60004cf4                LPSPI1_IRQHandler
 .text.LPSPI2_IRQHandler
                0x60004cfc        0x8 ./startup/startup_mimxrt1021.o
                0x60004cfc                LPSPI2_IRQHandler
 .text.LPSPI3_IRQHandler
                0x60004d04        0x8 ./startup/startup_mimxrt1021.o
                0x60004d04                LPSPI3_IRQHandler
 .text.LPSPI4_IRQHandler
                0x60004d0c        0x8 ./startup/startup_mimxrt1021.o
                0x60004d0c                LPSPI4_IRQHandler
 .text.CAN1_IRQHandler
                0x60004d14        0x8 ./startup/startup_mimxrt1021.o
                0x60004d14                CAN1_IRQHandler
 .text.CAN2_IRQHandler
                0x60004d1c        0x8 ./startup/startup_mimxrt1021.o
                0x60004d1c                CAN2_IRQHandler
 .text.FLEXRAM_IRQHandler
                0x60004d24        0x8 ./startup/startup_mimxrt1021.o
                0x60004d24                FLEXRAM_IRQHandler
 .text.KPP_IRQHandler
                0x60004d2c        0x8 ./startup/startup_mimxrt1021.o
                0x60004d2c                KPP_IRQHandler
 .text.Reserved56_IRQHandler
                0x60004d34        0x8 ./startup/startup_mimxrt1021.o
                0x60004d34                Reserved56_IRQHandler
 .text.GPR_IRQ_IRQHandler
                0x60004d3c        0x8 ./startup/startup_mimxrt1021.o
                0x60004d3c                GPR_IRQ_IRQHandler
 .text.Reserved58_IRQHandler
                0x60004d44        0x8 ./startup/startup_mimxrt1021.o
                0x60004d44                Reserved58_IRQHandler
 .text.Reserved59_IRQHandler
                0x60004d4c        0x8 ./startup/startup_mimxrt1021.o
                0x60004d4c                Reserved59_IRQHandler
 .text.Reserved60_IRQHandler
                0x60004d54        0x8 ./startup/startup_mimxrt1021.o
                0x60004d54                Reserved60_IRQHandler
 .text.WDOG2_IRQHandler
                0x60004d5c        0x8 ./startup/startup_mimxrt1021.o
                0x60004d5c                WDOG2_IRQHandler
 .text.SNVS_HP_WRAPPER_IRQHandler
                0x60004d64        0x8 ./startup/startup_mimxrt1021.o
                0x60004d64                SNVS_HP_WRAPPER_IRQHandler
 .text.SNVS_HP_WRAPPER_TZ_IRQHandler
                0x60004d6c        0x8 ./startup/startup_mimxrt1021.o
                0x60004d6c                SNVS_HP_WRAPPER_TZ_IRQHandler
 .text.SNVS_LP_WRAPPER_IRQHandler
                0x60004d74        0x8 ./startup/startup_mimxrt1021.o
                0x60004d74                SNVS_LP_WRAPPER_IRQHandler
 .text.CSU_IRQHandler
                0x60004d7c        0x8 ./startup/startup_mimxrt1021.o
                0x60004d7c                CSU_IRQHandler
 .text.DCP_IRQHandler
                0x60004d84        0x8 ./startup/startup_mimxrt1021.o
                0x60004d84                DCP_IRQHandler
 .text.DCP_VMI_IRQHandler
                0x60004d8c        0x8 ./startup/startup_mimxrt1021.o
                0x60004d8c                DCP_VMI_IRQHandler
 .text.Reserved68_IRQHandler
                0x60004d94        0x8 ./startup/startup_mimxrt1021.o
                0x60004d94                Reserved68_IRQHandler
 .text.TRNG_IRQHandler
                0x60004d9c        0x8 ./startup/startup_mimxrt1021.o
                0x60004d9c                TRNG_IRQHandler
 .text.Reserved70_IRQHandler
                0x60004da4        0x8 ./startup/startup_mimxrt1021.o
                0x60004da4                Reserved70_IRQHandler
 .text.BEE_IRQHandler
                0x60004dac        0x8 ./startup/startup_mimxrt1021.o
                0x60004dac                BEE_IRQHandler
 .text.SAI1_IRQHandler
                0x60004db4        0x8 ./startup/startup_mimxrt1021.o
                0x60004db4                SAI1_IRQHandler
 .text.SAI2_IRQHandler
                0x60004dbc        0x8 ./startup/startup_mimxrt1021.o
                0x60004dbc                SAI2_IRQHandler
 .text.SAI3_RX_IRQHandler
                0x60004dc4        0x8 ./startup/startup_mimxrt1021.o
                0x60004dc4                SAI3_RX_IRQHandler
 .text.SAI3_TX_IRQHandler
                0x60004dcc        0x8 ./startup/startup_mimxrt1021.o
                0x60004dcc                SAI3_TX_IRQHandler
 .text.SPDIF_IRQHandler
                0x60004dd4        0x8 ./startup/startup_mimxrt1021.o
                0x60004dd4                SPDIF_IRQHandler
 .text.PMU_IRQHandler
                0x60004ddc        0x8 ./startup/startup_mimxrt1021.o
                0x60004ddc                PMU_IRQHandler
 .text.Reserved78_IRQHandler
                0x60004de4        0x8 ./startup/startup_mimxrt1021.o
                0x60004de4                Reserved78_IRQHandler
 .text.TEMP_LOW_HIGH_IRQHandler
                0x60004dec        0x8 ./startup/startup_mimxrt1021.o
                0x60004dec                TEMP_LOW_HIGH_IRQHandler
 .text.TEMP_PANIC_IRQHandler
                0x60004df4        0x8 ./startup/startup_mimxrt1021.o
                0x60004df4                TEMP_PANIC_IRQHandler
 .text.USB_PHY_IRQHandler
                0x60004dfc        0x8 ./startup/startup_mimxrt1021.o
                0x60004dfc                USB_PHY_IRQHandler
 .text.Reserved82_IRQHandler
                0x60004e04        0x8 ./startup/startup_mimxrt1021.o
                0x60004e04                Reserved82_IRQHandler
 .text.ADC1_IRQHandler
                0x60004e0c        0x8 ./startup/startup_mimxrt1021.o
                0x60004e0c                ADC1_IRQHandler
 .text.ADC2_IRQHandler
                0x60004e14        0x8 ./startup/startup_mimxrt1021.o
                0x60004e14                ADC2_IRQHandler
 .text.DCDC_IRQHandler
                0x60004e1c        0x8 ./startup/startup_mimxrt1021.o
                0x60004e1c                DCDC_IRQHandler
 .text.Reserved86_IRQHandler
                0x60004e24        0x8 ./startup/startup_mimxrt1021.o
                0x60004e24                Reserved86_IRQHandler
 .text.Reserved87_IRQHandler
                0x60004e2c        0x8 ./startup/startup_mimxrt1021.o
                0x60004e2c                Reserved87_IRQHandler
 .text.GPIO1_INT0_IRQHandler
                0x60004e34        0x8 ./startup/startup_mimxrt1021.o
                0x60004e34                GPIO1_INT0_IRQHandler
 .text.GPIO1_INT1_IRQHandler
                0x60004e3c        0x8 ./startup/startup_mimxrt1021.o
                0x60004e3c                GPIO1_INT1_IRQHandler
 .text.GPIO1_INT2_IRQHandler
                0x60004e44        0x8 ./startup/startup_mimxrt1021.o
                0x60004e44                GPIO1_INT2_IRQHandler
 .text.GPIO1_INT3_IRQHandler
                0x60004e4c        0x8 ./startup/startup_mimxrt1021.o
                0x60004e4c                GPIO1_INT3_IRQHandler
 .text.GPIO1_INT4_IRQHandler
                0x60004e54        0x8 ./startup/startup_mimxrt1021.o
                0x60004e54                GPIO1_INT4_IRQHandler
 .text.GPIO1_INT5_IRQHandler
                0x60004e5c        0x8 ./startup/startup_mimxrt1021.o
                0x60004e5c                GPIO1_INT5_IRQHandler
 .text.GPIO1_INT6_IRQHandler
                0x60004e64        0x8 ./startup/startup_mimxrt1021.o
                0x60004e64                GPIO1_INT6_IRQHandler
 .text.GPIO1_INT7_IRQHandler
                0x60004e6c        0x8 ./startup/startup_mimxrt1021.o
                0x60004e6c                GPIO1_INT7_IRQHandler
 .text.GPIO1_Combined_0_15_IRQHandler
                0x60004e74        0x8 ./startup/startup_mimxrt1021.o
                0x60004e74                GPIO1_Combined_0_15_IRQHandler
 .text.GPIO1_Combined_16_31_IRQHandler
                0x60004e7c        0x8 ./startup/startup_mimxrt1021.o
                0x60004e7c                GPIO1_Combined_16_31_IRQHandler
 .text.GPIO2_Combined_0_15_IRQHandler
                0x60004e84        0x8 ./startup/startup_mimxrt1021.o
                0x60004e84                GPIO2_Combined_0_15_IRQHandler
 .text.GPIO2_Combined_16_31_IRQHandler
                0x60004e8c        0x8 ./startup/startup_mimxrt1021.o
                0x60004e8c                GPIO2_Combined_16_31_IRQHandler
 .text.GPIO3_Combined_0_15_IRQHandler
                0x60004e94        0x8 ./startup/startup_mimxrt1021.o
                0x60004e94                GPIO3_Combined_0_15_IRQHandler
 .text.GPIO3_Combined_16_31_IRQHandler
                0x60004e9c        0x8 ./startup/startup_mimxrt1021.o
                0x60004e9c                GPIO3_Combined_16_31_IRQHandler
 .text.Reserved102_IRQHandler
                0x60004ea4        0x8 ./startup/startup_mimxrt1021.o
                0x60004ea4                Reserved102_IRQHandler
 .text.Reserved103_IRQHandler
                0x60004eac        0x8 ./startup/startup_mimxrt1021.o
                0x60004eac                Reserved103_IRQHandler
 .text.GPIO5_Combined_0_15_IRQHandler
                0x60004eb4        0x8 ./startup/startup_mimxrt1021.o
                0x60004eb4                GPIO5_Combined_0_15_IRQHandler
 .text.GPIO5_Combined_16_31_IRQHandler
                0x60004ebc        0x8 ./startup/startup_mimxrt1021.o
                0x60004ebc                GPIO5_Combined_16_31_IRQHandler
 .text.FLEXIO1_IRQHandler
                0x60004ec4        0x8 ./startup/startup_mimxrt1021.o
                0x60004ec4                FLEXIO1_IRQHandler
 .text.Reserved107_IRQHandler
                0x60004ecc        0x8 ./startup/startup_mimxrt1021.o
                0x60004ecc                Reserved107_IRQHandler
 .text.WDOG1_IRQHandler
                0x60004ed4        0x8 ./startup/startup_mimxrt1021.o
                0x60004ed4                WDOG1_IRQHandler
 .text.RTWDOG_IRQHandler
                0x60004edc        0x8 ./startup/startup_mimxrt1021.o
                0x60004edc                RTWDOG_IRQHandler
 .text.EWM_IRQHandler
                0x60004ee4        0x8 ./startup/startup_mimxrt1021.o
                0x60004ee4                EWM_IRQHandler
 .text.CCM_1_IRQHandler
                0x60004eec        0x8 ./startup/startup_mimxrt1021.o
                0x60004eec                CCM_1_IRQHandler
 .text.CCM_2_IRQHandler
                0x60004ef4        0x8 ./startup/startup_mimxrt1021.o
                0x60004ef4                CCM_2_IRQHandler
 .text.GPC_IRQHandler
                0x60004efc        0x8 ./startup/startup_mimxrt1021.o
                0x60004efc                GPC_IRQHandler
 .text.SRC_IRQHandler
                0x60004f04        0x8 ./startup/startup_mimxrt1021.o
                0x60004f04                SRC_IRQHandler
 .text.Reserved115_IRQHandler
                0x60004f0c        0x8 ./startup/startup_mimxrt1021.o
                0x60004f0c                Reserved115_IRQHandler
 .text.GPT1_IRQHandler
                0x60004f14        0x8 ./startup/startup_mimxrt1021.o
                0x60004f14                GPT1_IRQHandler
 .text.GPT2_IRQHandler
                0x60004f1c        0x8 ./startup/startup_mimxrt1021.o
                0x60004f1c                GPT2_IRQHandler
 .text.PWM1_0_IRQHandler
                0x60004f24        0x8 ./startup/startup_mimxrt1021.o
                0x60004f24                PWM1_0_IRQHandler
 .text.PWM1_1_IRQHandler
                0x60004f2c        0x8 ./startup/startup_mimxrt1021.o
                0x60004f2c                PWM1_1_IRQHandler
 .text.PWM1_2_IRQHandler
                0x60004f34        0x8 ./startup/startup_mimxrt1021.o
                0x60004f34                PWM1_2_IRQHandler
 .text.PWM1_3_IRQHandler
                0x60004f3c        0x8 ./startup/startup_mimxrt1021.o
                0x60004f3c                PWM1_3_IRQHandler
 .text.PWM1_FAULT_IRQHandler
                0x60004f44        0x8 ./startup/startup_mimxrt1021.o
                0x60004f44                PWM1_FAULT_IRQHandler
 .text.Reserved123_IRQHandler
                0x60004f4c        0x8 ./startup/startup_mimxrt1021.o
                0x60004f4c                Reserved123_IRQHandler
 .text.FLEXSPI_IRQHandler
                0x60004f54        0x8 ./startup/startup_mimxrt1021.o
                0x60004f54                FLEXSPI_IRQHandler
 .text.SEMC_IRQHandler
                0x60004f5c        0x8 ./startup/startup_mimxrt1021.o
                0x60004f5c                SEMC_IRQHandler
 .text.USDHC1_IRQHandler
                0x60004f64        0x8 ./startup/startup_mimxrt1021.o
                0x60004f64                USDHC1_IRQHandler
 .text.USDHC2_IRQHandler
                0x60004f6c        0x8 ./startup/startup_mimxrt1021.o
                0x60004f6c                USDHC2_IRQHandler
 .text.Reserved128_IRQHandler
                0x60004f74        0x8 ./startup/startup_mimxrt1021.o
                0x60004f74                Reserved128_IRQHandler
 .text.USB_OTG1_IRQHandler
                0x60004f7c        0x8 ./startup/startup_mimxrt1021.o
                0x60004f7c                USB_OTG1_IRQHandler
 .text.ENET_IRQHandler
                0x60004f84        0x8 ./startup/startup_mimxrt1021.o
                0x60004f84                ENET_IRQHandler
 .text.ENET_1588_Timer_IRQHandler
                0x60004f8c        0x8 ./startup/startup_mimxrt1021.o
                0x60004f8c                ENET_1588_Timer_IRQHandler
 .text.XBAR1_IRQ_0_1_IRQHandler
                0x60004f94        0x8 ./startup/startup_mimxrt1021.o
                0x60004f94                XBAR1_IRQ_0_1_IRQHandler
 .text.XBAR1_IRQ_2_3_IRQHandler
                0x60004f9c        0x8 ./startup/startup_mimxrt1021.o
                0x60004f9c                XBAR1_IRQ_2_3_IRQHandler
 .text.ADC_ETC_IRQ0_IRQHandler
                0x60004fa4        0x8 ./startup/startup_mimxrt1021.o
                0x60004fa4                ADC_ETC_IRQ0_IRQHandler
 .text.ADC_ETC_IRQ1_IRQHandler
                0x60004fac        0x8 ./startup/startup_mimxrt1021.o
                0x60004fac                ADC_ETC_IRQ1_IRQHandler
 .text.ADC_ETC_IRQ2_IRQHandler
                0x60004fb4        0x8 ./startup/startup_mimxrt1021.o
                0x60004fb4                ADC_ETC_IRQ2_IRQHandler
 .text.ADC_ETC_ERROR_IRQ_IRQHandler
                0x60004fbc        0x8 ./startup/startup_mimxrt1021.o
                0x60004fbc                ADC_ETC_ERROR_IRQ_IRQHandler
 .text.PIT_IRQHandler
                0x60004fc4        0x8 ./startup/startup_mimxrt1021.o
                0x60004fc4                PIT_IRQHandler
 .text.ACMP1_IRQHandler
                0x60004fcc        0x8 ./startup/startup_mimxrt1021.o
                0x60004fcc                ACMP1_IRQHandler
 .text.ACMP2_IRQHandler
                0x60004fd4        0x8 ./startup/startup_mimxrt1021.o
                0x60004fd4                ACMP2_IRQHandler
 .text.ACMP3_IRQHandler
                0x60004fdc        0x8 ./startup/startup_mimxrt1021.o
                0x60004fdc                ACMP3_IRQHandler
 .text.ACMP4_IRQHandler
                0x60004fe4        0x8 ./startup/startup_mimxrt1021.o
                0x60004fe4                ACMP4_IRQHandler
 .text.Reserved143_IRQHandler
                0x60004fec        0x8 ./startup/startup_mimxrt1021.o
                0x60004fec                Reserved143_IRQHandler
 .text.Reserved144_IRQHandler
                0x60004ff4        0x8 ./startup/startup_mimxrt1021.o
                0x60004ff4                Reserved144_IRQHandler
 .text.ENC1_IRQHandler
                0x60004ffc        0x8 ./startup/startup_mimxrt1021.o
                0x60004ffc                ENC1_IRQHandler
 .text.ENC2_IRQHandler
                0x60005004        0x8 ./startup/startup_mimxrt1021.o
                0x60005004                ENC2_IRQHandler
 .text.Reserved147_IRQHandler
                0x6000500c        0x8 ./startup/startup_mimxrt1021.o
                0x6000500c                Reserved147_IRQHandler
 .text.Reserved148_IRQHandler
                0x60005014        0x8 ./startup/startup_mimxrt1021.o
                0x60005014                Reserved148_IRQHandler
 .text.TMR1_IRQHandler
                0x6000501c        0x8 ./startup/startup_mimxrt1021.o
                0x6000501c                TMR1_IRQHandler
 .text.TMR2_IRQHandler
                0x60005024        0x8 ./startup/startup_mimxrt1021.o
                0x60005024                TMR2_IRQHandler
 .text.Reserved151_IRQHandler
                0x6000502c        0x8 ./startup/startup_mimxrt1021.o
                0x6000502c                Reserved151_IRQHandler
 .text.Reserved152_IRQHandler
                0x60005034        0x8 ./startup/startup_mimxrt1021.o
                0x60005034                Reserved152_IRQHandler
 .text.PWM2_0_IRQHandler
                0x6000503c        0x8 ./startup/startup_mimxrt1021.o
                0x6000503c                PWM2_0_IRQHandler
 .text.PWM2_1_IRQHandler
                0x60005044        0x8 ./startup/startup_mimxrt1021.o
                0x60005044                PWM2_1_IRQHandler
 .text.PWM2_2_IRQHandler
                0x6000504c        0x8 ./startup/startup_mimxrt1021.o
                0x6000504c                PWM2_2_IRQHandler
 .text.PWM2_3_IRQHandler
                0x60005054        0x8 ./startup/startup_mimxrt1021.o
                0x60005054                PWM2_3_IRQHandler
 .text.PWM2_FAULT_IRQHandler
                0x6000505c        0x8 ./startup/startup_mimxrt1021.o
                0x6000505c                PWM2_FAULT_IRQHandler
 .text.delay_ms
                0x60005064       0x46 ./source/hello_world.o
                0x60005064                delay_ms
 .text.HardFault_Handler
                0x600050aa       0x2c ./source/semihost_hardfault.o
                0x600050aa                HardFault_Handler
 .text.CLOCK_IsPllBypassed
                0x600050d6       0x32 ./drivers/fsl_clock.o
 .text.CLOCK_IsPllEnabled
                0x60005108       0x3c ./drivers/fsl_clock.o
 .text.CLOCK_GetPllBypassRefClk
                0x60005144       0x34 ./drivers/fsl_clock.o
 .text.CLOCK_EnableClock
                0x60005178       0x1e ./drivers/fsl_lpuart.o
 .text.LPUART_SoftwareReset
                0x60005196       0x2c ./drivers/fsl_lpuart.o
 .text.SystemInitHook
                0x600051c2        0xe ./device/system_MIMXRT1021.o
                0x600051c2                SystemInitHook
 .text.HAL_UartGetStatus
                0x600051d0       0x22 ./component/uart/lpuart_adapter.o
 .text.DisableGlobalIRQ
                0x600051f2       0x20 ./component/serial_manager/serial_manager.o
 .text.EnableGlobalIRQ
                0x60005212       0x1e ./component/serial_manager/serial_manager.o
 .text.SerialManager_StartWriting
                0x60005230       0x38 ./component/serial_manager/serial_manager.o
 .text.SerialManager_WriteBlocking
                0x60005268       0x20 ./component/serial_manager/serial_manager.o
                0x60005268                SerialManager_WriteBlocking
 .text.BOARD_InitDebugConsole
                0x60005288       0x22 ./board/board.o
                0x60005288                BOARD_InitDebugConsole
 .text.CLOCK_DisableClock
                0x600052aa       0x1e ./board/clock_config.o
 .text.CLOCK_SetPllBypass
                0x600052c8       0x4e ./board/clock_config.o
 .text.IOMUXC_SetSaiMClkClockSource
                0x60005316       0x6c ./board/clock_config.o
 .text.BOARD_InitBootClocks
                0x60005382        0xc ./board/clock_config.o
                0x60005382                BOARD_InitBootClocks
 .text.CLOCK_EnableClock
                0x6000538e       0x1e ./board/pin_mux.o
 .text.IOMUXC_SetPinMux
                0x600053ac       0x3a ./board/pin_mux.o
 .text.IOMUXC_SetPinConfig
                0x600053e6       0x26 ./board/pin_mux.o
 .text.__main   0x6000540c        0xe c:/nxp/mcuxpressoide_11.1.1_3241/ide/plugins/com.nxp.mcuxpresso.tools.win32_11.1.0.202001081728/tools/bin/../lib/gcc/arm-none-eabi/8.3.1/../../../../arm-none-eabi/lib/thumb/v7e-m+dp/hard\libcr_nohost_nf.a(_cr__main.o)
                0x6000540c                __main
 .text.memcpy   0x6000541a        0x4 c:/nxp/mcuxpressoide_11.1.1_3241/ide/plugins/com.nxp.mcuxpresso.tools.win32_11.1.0.202001081728/tools/bin/../lib/gcc/arm-none-eabi/8.3.1/../../../../arm-none-eabi/lib/thumb/v7e-m+dp/hard\libcr_c.a(memcpy.o)
                0x6000541a                memcpy
 .text.memset   0x6000541e        0x4 c:/nxp/mcuxpressoide_11.1.1_3241/ide/plugins/com.nxp.mcuxpresso.tools.win32_11.1.0.202001081728/tools/bin/../lib/gcc/arm-none-eabi/8.3.1/../../../../arm-none-eabi/lib/thumb/v7e-m+dp/hard\libcr_c.a(memset.o)
                0x6000541e                memset
 .text.free     0x60005422       0x30 c:/nxp/mcuxpressoide_11.1.1_3241/ide/plugins/com.nxp.mcuxpresso.tools.win32_11.1.0.202001081728/tools/bin/../lib/gcc/arm-none-eabi/8.3.1/../../../../arm-none-eabi/lib/thumb/v7e-m+dp/hard\libcr_c.a(alloc.o)
                0x60005422                free
 .text.strlen   0x60005452       0x4c c:/nxp/mcuxpressoide_11.1.1_3241/ide/plugins/com.nxp.mcuxpresso.tools.win32_11.1.0.202001081728/tools/bin/../lib/gcc/arm-none-eabi/8.3.1/../../../../arm-none-eabi/lib/thumb/v7e-m+dp/hard\libcr_c.a(strlen.o)
                0x60005452                strlen
 .text._deferredlazyseek
                0x6000549e       0x40 c:/nxp/mcuxpressoide_11.1.1_3241/ide/plugins/com.nxp.mcuxpresso.tools.win32_11.1.0.202001081728/tools/bin/../lib/gcc/arm-none-eabi/8.3.1/../../../../arm-none-eabi/lib/thumb/v7e-m+dp/hard\libcr_c.a(_deferredlazyseek.o)
                0x6000549e                _deferredlazyseek
 .text._fdopen  0x600054de       0x68 c:/nxp/mcuxpressoide_11.1.1_3241/ide/plugins/com.nxp.mcuxpresso.tools.win32_11.1.0.202001081728/tools/bin/../lib/gcc/arm-none-eabi/8.3.1/../../../../arm-none-eabi/lib/thumb/v7e-m+dp/hard\libcr_c.a(_fdopen.o)
                0x600054de                _fdopen
 .text._fflush  0x60005546       0x52 c:/nxp/mcuxpressoide_11.1.1_3241/ide/plugins/com.nxp.mcuxpresso.tools.win32_11.1.0.202001081728/tools/bin/../lib/gcc/arm-none-eabi/8.3.1/../../../../arm-none-eabi/lib/thumb/v7e-m+dp/hard\libcr_c.a(_fflush.o)
                0x60005546                _fflush
 .text.fclose   0x60005598       0x58 c:/nxp/mcuxpressoide_11.1.1_3241/ide/plugins/com.nxp.mcuxpresso.tools.win32_11.1.0.202001081728/tools/bin/../lib/gcc/arm-none-eabi/8.3.1/../../../../arm-none-eabi/lib/thumb/v7e-m+dp/hard\libcr_c.a(fclose.o)
                0x60005598                fclose
 .text.remove   0x600055f0       0x14 c:/nxp/mcuxpressoide_11.1.1_3241/ide/plugins/com.nxp.mcuxpresso.tools.win32_11.1.0.202001081728/tools/bin/../lib/gcc/arm-none-eabi/8.3.1/../../../../arm-none-eabi/lib/thumb/v7e-m+dp/hard\libcr_c.a(remove.o)
                0x600055f0                remove
 .text._do_fflush
                0x60005604       0x40 c:/nxp/mcuxpressoide_11.1.1_3241/ide/plugins/com.nxp.mcuxpresso.tools.win32_11.1.0.202001081728/tools/bin/../lib/gcc/arm-none-eabi/8.3.1/../../../../arm-none-eabi/lib/thumb/v7e-m+dp/hard\libcr_c.a(_do_fflush.o)
                0x60005604                _do_fflush
 .text.__aeabi_memcpy
                0x60005644       0x34 c:/nxp/mcuxpressoide_11.1.1_3241/ide/plugins/com.nxp.mcuxpresso.tools.win32_11.1.0.202001081728/tools/bin/../lib/gcc/arm-none-eabi/8.3.1/thumb/v7e-m+dp/hard\libcr_eabihelpers.a(memcpy.o)
                0x60005644                __aeabi_memcpy
                0x6000564e                __aeabi_memcpy8
                0x6000564e                __aeabi_memcpy4
 .text.__aeabi_memset_lowlevel
                0x60005678       0x32 c:/nxp/mcuxpressoide_11.1.1_3241/ide/plugins/com.nxp.mcuxpresso.tools.win32_11.1.0.202001081728/tools/bin/../lib/gcc/arm-none-eabi/8.3.1/thumb/v7e-m+dp/hard\libcr_eabihelpers.a(memcpy.o)
                0x60005678                __aeabi_lowlevel_memset
 .text.__sys_close
                0x600056aa        0x6 c:/nxp/mcuxpressoide_11.1.1_3241/ide/plugins/com.nxp.mcuxpresso.tools.win32_11.1.0.202001081728/tools/bin/../lib/gcc/arm-none-eabi/8.3.1/../../../../arm-none-eabi/lib/thumb/v7e-m+dp/hard\libcr_nohost_nf.a(__sys_close.o)
                0x600056aa                __sys_close
 .text.__sys_flen
                0x600056b0        0x6 c:/nxp/mcuxpressoide_11.1.1_3241/ide/plugins/com.nxp.mcuxpresso.tools.win32_11.1.0.202001081728/tools/bin/../lib/gcc/arm-none-eabi/8.3.1/../../../../arm-none-eabi/lib/thumb/v7e-m+dp/hard\libcr_nohost_nf.a(__sys_flen.o)
                0x600056b0                __sys_flen
 .text.__sys_istty
                0x600056b6        0x6 c:/nxp/mcuxpressoide_11.1.1_3241/ide/plugins/com.nxp.mcuxpresso.tools.win32_11.1.0.202001081728/tools/bin/../lib/gcc/arm-none-eabi/8.3.1/../../../../arm-none-eabi/lib/thumb/v7e-m+dp/hard\libcr_nohost_nf.a(__sys_istty.o)
                0x600056b6                __sys_istty
 .text.__sys_remove
                0x600056bc        0x6 c:/nxp/mcuxpressoide_11.1.1_3241/ide/plugins/com.nxp.mcuxpresso.tools.win32_11.1.0.202001081728/tools/bin/../lib/gcc/arm-none-eabi/8.3.1/../../../../arm-none-eabi/lib/thumb/v7e-m+dp/hard\libcr_nohost_nf.a(__sys_remove.o)
                0x600056bc                __sys_remove
 .text.__sys_seek
                0x600056c2        0x6 c:/nxp/mcuxpressoide_11.1.1_3241/ide/plugins/com.nxp.mcuxpresso.tools.win32_11.1.0.202001081728/tools/bin/../lib/gcc/arm-none-eabi/8.3.1/../../../../arm-none-eabi/lib/thumb/v7e-m+dp/hard\libcr_nohost_nf.a(__sys_seek.o)
                0x600056c2                __sys_seek
 .text.__sys_tmpnam
                0x600056c8        0x6 c:/nxp/mcuxpressoide_11.1.1_3241/ide/plugins/com.nxp.mcuxpresso.tools.win32_11.1.0.202001081728/tools/bin/../lib/gcc/arm-none-eabi/8.3.1/../../../../arm-none-eabi/lib/thumb/v7e-m+dp/hard\libcr_nohost_nf.a(__sys_tmpnam.o)
                0x600056c8                __sys_tmpnam
 .text.__sys_write
                0x600056ce        0x4 c:/nxp/mcuxpressoide_11.1.1_3241/ide/plugins/com.nxp.mcuxpresso.tools.win32_11.1.0.202001081728/tools/bin/../lib/gcc/arm-none-eabi/8.3.1/../../../../arm-none-eabi/lib/thumb/v7e-m+dp/hard\libcr_nohost_nf.a(__sys_write.o)
                0x600056ce                __sys_write
 *(SORT_BY_ALIGNMENT(.rodata) SORT_BY_ALIGNMENT(.rodata.*) SORT_BY_ALIGNMENT(.constdata) SORT_BY_ALIGNMENT(.constdata.*))
 *fill*         0x600056d2        0x2 ff
 .rodata.__assertion_failed.str1.4
                0x600056d4       0x14 ./utilities/fsl_assert.o
 .rodata.DbgConsole_SendDataReliable.str1.4
                0x600056e8       0x4e ./utilities/fsl_debug_console.o
 *fill*         0x60005736        0x2 ff
 .rodata.DbgConsole_Init.str1.4
                0x60005738       0xcb ./utilities/fsl_debug_console.o
 *fill*         0x60005803        0x1 ff
 .rodata.main.str1.4
                0x60005804       0x7b ./source/hello_world.o
 *fill*         0x6000587f        0x1 ff
 .rodata.CLOCK_InitExternalClk.str1.4
                0x60005880       0x22 ./drivers/fsl_clock.o
 *fill*         0x600058a2        0x2 ff
 .rodata.CLOCK_GetPllFreq.str1.4
                0x600058a4       0x35 ./drivers/fsl_clock.o
 *fill*         0x600058d9        0x3 ff
 .rodata        0x600058dc       0x10 ./drivers/fsl_clock.o
 .rodata.CLOCK_ControlGate.str1.4
                0x600058ec       0x20 ./drivers/fsl_lpuart.o
 .rodata.s_lpuartBases
                0x6000590c       0x24 ./drivers/fsl_lpuart.o
 .rodata.s_lpuartClock
                0x60005930       0x12 ./drivers/fsl_lpuart.o
 *fill*         0x60005942        0x2 ff
 .rodata.LPUART_GetInstance.str1.4
                0x60005944       0x39 ./drivers/fsl_lpuart.o
 *fill*         0x6000597d        0x3 ff
 .rodata.LPUART_Init.str1.4
                0x60005980      0x10c ./drivers/fsl_lpuart.o
 .rodata.LPUART_GetDefaultConfig.str1.4
                0x60005a8c       0x23 ./drivers/fsl_lpuart.o
 *fill*         0x60005aaf        0x1 ff
 .rodata.LPUART_WriteBlocking.str1.4
                0x60005ab0       0x21 ./drivers/fsl_lpuart.o
 *fill*         0x60005ad1        0x3 ff
 .rodata.s_LpuartAdapterBase
                0x60005ad4       0x24 ./component/uart/lpuart_adapter.o
 .rodata.HAL_UartInit.str1.4
                0x60005af8       0xe2 ./component/uart/lpuart_adapter.o
 *fill*         0x60005bda        0x2 ff
 .rodata.HAL_UartSendBlocking.str1.4
                0x60005bdc       0x5f ./component/uart/lpuart_adapter.o
 *fill*         0x60005c3b        0x1 ff
 .rodata.SerialManager_Write.str1.4
                0x60005c3c       0x83 ./component/serial_manager/serial_manager.o
 *fill*         0x60005cbf        0x1 ff
 .rodata.SerialManager_Init.str1.4
                0x60005cc0       0x45 ./component/serial_manager/serial_manager.o
 *fill*         0x60005d05        0x3 ff
 .rodata.SerialManager_OpenWriteHandle.str1.4
                0x60005d08       0x4d ./component/serial_manager/serial_manager.o
 *fill*         0x60005d55        0x3 ff
 .rodata.SerialManager_OpenReadHandle.str1.4
                0x60005d58       0x4c ./component/serial_manager/serial_manager.o
 .rodata.Serial_UartInit.str1.4
                0x60005da4       0x4f ./component/serial_manager/serial_port_uart.o
 *fill*         0x60005df3        0x1 ff
 .rodata.Serial_UartWrite.str1.4
                0x60005df4       0x6d ./component/serial_manager/serial_port_uart.o
 *fill*         0x60005e61        0x3 ff
 .rodata.BOARD_ConfigMPU.str1.4
                0x60005e64       0x6a ./board/board.o
 *fill*         0x60005ece        0x2 ff
 .rodata.CLOCK_SetMux.str1.4
                0x60005ed0       0x57 ./board/clock_config.o
 *fill*         0x60005f27        0x1 ff
 .rodata.CLOCK_SetDiv.str1.4
                0x60005f28       0x57 ./board/clock_config.o
 *fill*         0x60005f7f        0x1 ff
 .rodata.CLOCK_ControlGate.str1.4
                0x60005f80       0x48 ./board/clock_config.o
                                 0x46 (size before relaxing)
 .rodata.enetPllConfig_BOARD_BootClockRUN
                0x60005fc8        0x5 ./board/clock_config.o
                0x60005fc8                enetPllConfig_BOARD_BootClockRUN
 .rodata.CLOCK_ControlGate.str1.4
                0x60005fcd       0x46 ./board/pin_mux.o
 *fill*         0x60005fcd        0x3 ff
 .rodata.__num_Ciob_streams
                0x60005fd0        0x4 c:/nxp/mcuxpressoide_11.1.1_3241/ide/plugins/com.nxp.mcuxpresso.tools.win32_11.1.0.202001081728/tools/bin/../lib/gcc/arm-none-eabi/8.3.1/../../../../arm-none-eabi/lib/thumb/v7e-m+dp/hard\libcr_nohost_nf.a(__ciob.o)
                0x60005fd0                __num_Ciob_streams
 .rodata._initio.str1.1
                0x60005fd4        0x4 c:/nxp/mcuxpressoide_11.1.1_3241/ide/plugins/com.nxp.mcuxpresso.tools.win32_11.1.0.202001081728/tools/bin/../lib/gcc/arm-none-eabi/8.3.1/../../../../arm-none-eabi/lib/thumb/v7e-m+dp/hard\libcr_c.a(initio.o)
                0x60005fd8                . = ALIGN (0x4)

.glue_7         0x60005fd8        0x0
 .glue_7        0x60005fd8        0x0 linker stubs

.glue_7t        0x60005fd8        0x0
 .glue_7t       0x60005fd8        0x0 linker stubs

.vfp11_veneer   0x60005fd8        0x0
 .vfp11_veneer  0x60005fd8        0x0 linker stubs

.v4_bx          0x60005fd8        0x0
 .v4_bx         0x60005fd8        0x0 linker stubs

.iplt           0x60005fd8        0x0
 .iplt          0x60005fd8        0x0 ./xip/evkmimxrt1020_flexspi_nor_config.o

.rel.dyn        0x60005fd8        0x0
 .rel.iplt      0x60005fd8        0x0 ./xip/evkmimxrt1020_flexspi_nor_config.o

.ARM.extab
 *(SORT_BY_ALIGNMENT(.ARM.extab*) SORT_BY_ALIGNMENT(.gnu.linkonce.armextab.*))

.ARM.exidx      0x60005fd8        0x0
                0x60005fd8                __exidx_start = .
 *(SORT_BY_ALIGNMENT(.ARM.exidx*) SORT_BY_ALIGNMENT(.gnu.linkonce.armexidx.*))
                0x60005fd8                __exidx_end = .
                0x60005fd8                _etext = .

.data_RAM2      0x81e00000        0x0 load address 0x60005fd8
 FILL mask 0xff
                [!provide]                PROVIDE (__start_data_RAM2 = .)
                [!provide]                PROVIDE (__start_data_NCACHE_REGION = .)
 *(SORT_BY_ALIGNMENT(.ramfunc.$RAM2))
 *(SORT_BY_ALIGNMENT(.ramfunc.$NCACHE_REGION))
 *(SORT_BY_ALIGNMENT(NonCacheable.init))
 *(SORT_BY_ALIGNMENT(.data.$RAM2))
 *(SORT_BY_ALIGNMENT(.data.$NCACHE_REGION))
 *(SORT_BY_ALIGNMENT(.data.$RAM2.*))
 *(SORT_BY_ALIGNMENT(.data.$NCACHE_REGION.*))
                0x81e00000                . = ALIGN (0x4)
                [!provide]                PROVIDE (__end_data_RAM2 = .)
                [!provide]                PROVIDE (__end_data_NCACHE_REGION = .)

.data_RAM3      0x20000000        0x0 load address 0x60005fd8
 FILL mask 0xff
                [!provide]                PROVIDE (__start_data_RAM3 = .)
                [!provide]                PROVIDE (__start_data_SRAM_DTC = .)
 *(SORT_BY_ALIGNMENT(.ramfunc.$RAM3))
 *(SORT_BY_ALIGNMENT(.ramfunc.$SRAM_DTC))
 *(SORT_BY_ALIGNMENT(.data.$RAM3))
 *(SORT_BY_ALIGNMENT(.data.$SRAM_DTC))
 *(SORT_BY_ALIGNMENT(.data.$RAM3.*))
 *(SORT_BY_ALIGNMENT(.data.$SRAM_DTC.*))
                0x20000000                . = ALIGN (0x4)
                [!provide]                PROVIDE (__end_data_RAM3 = .)
                [!provide]                PROVIDE (__end_data_SRAM_DTC = .)

.data_RAM4      0x00000000        0x0 load address 0x60005fd8
 FILL mask 0xff
                [!provide]                PROVIDE (__start_data_RAM4 = .)
                [!provide]                PROVIDE (__start_data_SRAM_ITC = .)
 *(SORT_BY_ALIGNMENT(.ramfunc.$RAM4))
 *(SORT_BY_ALIGNMENT(.ramfunc.$SRAM_ITC))
 *(SORT_BY_ALIGNMENT(.data.$RAM4))
 *(SORT_BY_ALIGNMENT(.data.$SRAM_ITC))
 *(SORT_BY_ALIGNMENT(.data.$RAM4.*))
 *(SORT_BY_ALIGNMENT(.data.$SRAM_ITC.*))
                0x00000000                . = ALIGN (0x4)
                [!provide]                PROVIDE (__end_data_RAM4 = .)
                [!provide]                PROVIDE (__end_data_SRAM_ITC = .)

.data_RAM5      0x20200000        0x0 load address 0x60005fd8
 FILL mask 0xff
                [!provide]                PROVIDE (__start_data_RAM5 = .)
                [!provide]                PROVIDE (__start_data_SRAM_OC = .)
 *(SORT_BY_ALIGNMENT(.ramfunc.$RAM5))
 *(SORT_BY_ALIGNMENT(.ramfunc.$SRAM_OC))
 *(SORT_BY_ALIGNMENT(.data.$RAM5))
 *(SORT_BY_ALIGNMENT(.data.$SRAM_OC))
 *(SORT_BY_ALIGNMENT(.data.$RAM5.*))
 *(SORT_BY_ALIGNMENT(.data.$SRAM_OC.*))
                0x20200000                . = ALIGN (0x4)
                [!provide]                PROVIDE (__end_data_RAM5 = .)
                [!provide]                PROVIDE (__end_data_SRAM_OC = .)

.uninit_RESERVED
                0x80000000        0x0
                0x80000000                _start_uninit_RESERVED = .
 *(SORT_BY_ALIGNMENT(.bss.$RESERVED*))
                0x80000000                . = ALIGN (0x4)
                0x80000000                _end_uninit_RESERVED = .

.data           0x80000000        0x4 load address 0x60005fd8
 FILL mask 0xff
                0x80000000                _data = .
                [!provide]                PROVIDE (__start_data_RAM = .)
                [!provide]                PROVIDE (__start_data_BOARD_SDRAM = .)
 *(SORT_BY_ALIGNMENT(vtable))
 *(SORT_BY_ALIGNMENT(.ramfunc*))
 *(SORT_BY_ALIGNMENT(CodeQuickAccess))
 *(SORT_BY_ALIGNMENT(DataQuickAccess))
 *(SORT_BY_ALIGNMENT(RamFunction))
 *(SORT_BY_ALIGNMENT(.data*))
 .data.SystemCoreClock
                0x80000000        0x4 ./device/system_MIMXRT1021.o
                0x80000000                SystemCoreClock
                0x80000004                . = ALIGN (0x4)
                0x80000004                _edata = .
                [!provide]                PROVIDE (__end_data_RAM = .)
                [!provide]                PROVIDE (__end_data_BOARD_SDRAM = .)

.igot.plt       0x80000004        0x0 load address 0x60005fdc
 .igot.plt      0x80000004        0x0 ./xip/evkmimxrt1020_flexspi_nor_config.o

.bss_RAM2       0x81e00000       0x1c
                [!provide]                PROVIDE (__start_bss_RAM2 = .)
                [!provide]                PROVIDE (__start_bss_NCACHE_REGION = .)
 *(SORT_BY_ALIGNMENT(NonCacheable))
 NonCacheable   0x81e00000       0x1c ./utilities/fsl_debug_console.o
 *(SORT_BY_ALIGNMENT(.bss.$RAM2))
 *(SORT_BY_ALIGNMENT(.bss.$NCACHE_REGION))
 *(SORT_BY_ALIGNMENT(.bss.$RAM2.*))
 *(SORT_BY_ALIGNMENT(.bss.$NCACHE_REGION.*))
                0x81e0001c                . = ALIGN ((. != 0x0)?0x4:0x1)
                [!provide]                PROVIDE (__end_bss_RAM2 = .)
                [!provide]                PROVIDE (__end_bss_NCACHE_REGION = .)

.bss_RAM3       0x20000000        0x0
                [!provide]                PROVIDE (__start_bss_RAM3 = .)
                [!provide]                PROVIDE (__start_bss_SRAM_DTC = .)
 *(SORT_BY_ALIGNMENT(.bss.$RAM3))
 *(SORT_BY_ALIGNMENT(.bss.$SRAM_DTC))
 *(SORT_BY_ALIGNMENT(.bss.$RAM3.*))
 *(SORT_BY_ALIGNMENT(.bss.$SRAM_DTC.*))
                0x20000000                . = ALIGN ((. != 0x0)?0x4:0x1)
                [!provide]                PROVIDE (__end_bss_RAM3 = .)
                [!provide]                PROVIDE (__end_bss_SRAM_DTC = .)

.bss_RAM4       0x00000000        0x0
                [!provide]                PROVIDE (__start_bss_RAM4 = .)
                [!provide]                PROVIDE (__start_bss_SRAM_ITC = .)
 *(SORT_BY_ALIGNMENT(.bss.$RAM4))
 *(SORT_BY_ALIGNMENT(.bss.$SRAM_ITC))
 *(SORT_BY_ALIGNMENT(.bss.$RAM4.*))
 *(SORT_BY_ALIGNMENT(.bss.$SRAM_ITC.*))
                0x00000000                . = ALIGN ((. != 0x0)?0x4:0x1)
                [!provide]                PROVIDE (__end_bss_RAM4 = .)
                [!provide]                PROVIDE (__end_bss_SRAM_ITC = .)

.bss_RAM5       0x20200000        0x0
                [!provide]                PROVIDE (__start_bss_RAM5 = .)
                [!provide]                PROVIDE (__start_bss_SRAM_OC = .)
 *(SORT_BY_ALIGNMENT(.bss.$RAM5))
 *(SORT_BY_ALIGNMENT(.bss.$SRAM_OC))
 *(SORT_BY_ALIGNMENT(.bss.$RAM5.*))
 *(SORT_BY_ALIGNMENT(.bss.$SRAM_OC.*))
                0x20200000                . = ALIGN ((. != 0x0)?0x4:0x1)
                [!provide]                PROVIDE (__end_bss_RAM5 = .)
                [!provide]                PROVIDE (__end_bss_SRAM_OC = .)

.bss            0x80000004      0x10c
                0x80000004                _bss = .
                [!provide]                PROVIDE (__start_bss_RAM = .)
                [!provide]                PROVIDE (__start_bss_BOARD_SDRAM = .)
 *(SORT_BY_ALIGNMENT(.bss*))
 .bss.g_serialHandle
                0x80000004        0x4 ./utilities/fsl_debug_console.o
                0x80000004                g_serialHandle
 .bss.Image_Start
                0x80000008        0x4 ./source/hello_world.o
                0x80000008                Image_Start
 .bss.iap_config
                0x8000000c       0x14 ./source/hello_world.o
                0x8000000c                iap_config
 .bss.s_stackPointer.9524
                0x80000020        0x4 ./source/hello_world.o
 .bss.runApplication.9525
                0x80000024        0x4 ./source/hello_world.o
 .bss.g_xtalFreq
                0x80000028        0x4 ./drivers/fsl_clock.o
                0x80000028                g_xtalFreq
 .bss.g_rtcXtalFreq
                0x8000002c        0x4 ./drivers/fsl_clock.o
                0x8000002c                g_rtcXtalFreq
 .bss.s_lpuartHandle
                0x80000030       0x24 ./drivers/fsl_lpuart.o
 .bss.s_lpuartIsr
                0x80000054        0x4 ./drivers/fsl_lpuart.o
 .bss.errno     0x80000058        0x4 c:/nxp/mcuxpressoide_11.1.1_3241/ide/plugins/com.nxp.mcuxpresso.tools.win32_11.1.0.202001081728/tools/bin/../lib/gcc/arm-none-eabi/8.3.1/../../../../arm-none-eabi/lib/thumb/v7e-m+dp/hard\libcr_c.a(errno.o)
                0x80000058                errno
 .bss.__Ciob    0x8000005c       0xb4 c:/nxp/mcuxpressoide_11.1.1_3241/ide/plugins/com.nxp.mcuxpresso.tools.win32_11.1.0.202001081728/tools/bin/../lib/gcc/arm-none-eabi/8.3.1/../../../../arm-none-eabi/lib/thumb/v7e-m+dp/hard\libcr_nohost_nf.a(__ciob.o)
                0x8000005c                __Ciob
 *(SORT_BY_ALIGNMENT(COMMON))
                0x80000110                . = ALIGN (0x4)
                0x80000110                _ebss = .
                [!provide]                PROVIDE (__end_bss_RAM = .)
                [!provide]                PROVIDE (__end_bss_BOARD_SDRAM = .)
                [!provide]                PROVIDE (end = .)

.noinit_RAM2    0x81e0001c        0x0
                [!provide]                PROVIDE (__start_noinit_RAM2 = .)
                [!provide]                PROVIDE (__start_noinit_NCACHE_REGION = .)
 *(SORT_BY_ALIGNMENT(.noinit.$RAM2))
 *(SORT_BY_ALIGNMENT(.noinit.$NCACHE_REGION))
 *(SORT_BY_ALIGNMENT(.noinit.$RAM2.*))
 *(SORT_BY_ALIGNMENT(.noinit.$NCACHE_REGION.*))
                0x81e0001c                . = ALIGN (0x4)
                [!provide]                PROVIDE (__end_noinit_RAM2 = .)
                [!provide]                PROVIDE (__end_noinit_NCACHE_REGION = .)

.noinit_RAM3    0x20000000        0x0
                [!provide]                PROVIDE (__start_noinit_RAM3 = .)
                [!provide]                PROVIDE (__start_noinit_SRAM_DTC = .)
 *(SORT_BY_ALIGNMENT(.noinit.$RAM3))
 *(SORT_BY_ALIGNMENT(.noinit.$SRAM_DTC))
 *(SORT_BY_ALIGNMENT(.noinit.$RAM3.*))
 *(SORT_BY_ALIGNMENT(.noinit.$SRAM_DTC.*))
                0x20000000                . = ALIGN (0x4)
                [!provide]                PROVIDE (__end_noinit_RAM3 = .)
                [!provide]                PROVIDE (__end_noinit_SRAM_DTC = .)

.noinit_RAM4    0x00000000        0x0
                [!provide]                PROVIDE (__start_noinit_RAM4 = .)
                [!provide]                PROVIDE (__start_noinit_SRAM_ITC = .)
 *(SORT_BY_ALIGNMENT(.noinit.$RAM4))
 *(SORT_BY_ALIGNMENT(.noinit.$SRAM_ITC))
 *(SORT_BY_ALIGNMENT(.noinit.$RAM4.*))
 *(SORT_BY_ALIGNMENT(.noinit.$SRAM_ITC.*))
                0x00000000                . = ALIGN (0x4)
                [!provide]                PROVIDE (__end_noinit_RAM4 = .)
                [!provide]                PROVIDE (__end_noinit_SRAM_ITC = .)

.noinit_RAM5    0x20200000        0x0
                [!provide]                PROVIDE (__start_noinit_RAM5 = .)
                [!provide]                PROVIDE (__start_noinit_SRAM_OC = .)
 *(SORT_BY_ALIGNMENT(.noinit.$RAM5))
 *(SORT_BY_ALIGNMENT(.noinit.$SRAM_OC))
 *(SORT_BY_ALIGNMENT(.noinit.$RAM5.*))
 *(SORT_BY_ALIGNMENT(.noinit.$SRAM_OC.*))
                0x20200000                . = ALIGN (0x4)
                [!provide]                PROVIDE (__end_noinit_RAM5 = .)
                [!provide]                PROVIDE (__end_noinit_SRAM_OC = .)

.noinit         0x80000110        0x0
                0x80000110                _noinit = .
                [!provide]                PROVIDE (__start_noinit_RAM = .)
                [!provide]                PROVIDE (__start_noinit_BOARD_SDRAM = .)
 *(SORT_BY_ALIGNMENT(.noinit*))
                0x80000110                . = ALIGN (0x4)
                0x80000110                _end_noinit = .
                [!provide]                PROVIDE (__end_noinit_RAM = .)
                [!provide]                PROVIDE (__end_noinit_BOARD_SDRAM = .)
                0x00001000                _HeapSize = 0x1000

.heap           0x80000110     0x1000
                0x80000110                _pvHeapStart = .
                0x80001110                . = (. + _HeapSize)
 *fill*         0x80000110     0x1000 
                0x80001110                . = ALIGN (0x4)
                0x80001110                _pvHeapLimit = .
                0x00001000                _StackSize = 0x1000

.heap2stackfill
                0x80001110     0x1000
                0x80002110                . = (. + _StackSize)
 *fill*         0x80001110     0x1000 

.stack          0x81dff000        0x0
                0x81dff000                _vStackBase = .
                0x81dff000                . = ALIGN (0x4)
                0x81e00000                _vStackTop = (. + _StackSize)
                0x60002000                _image_start = LOADADDR (.text)
                0x60005fdc                _image_end = (LOADADDR (.data) + SIZEOF (.data))
                0x00003fdc                _image_size = (_image_end - _image_start)
OUTPUT(bootloader_M7.axf elf32-littlearm)

.debug_info     0x00000000     0xceef
 .debug_info    0x00000000      0x82c ./xip/evkmimxrt1020_flexspi_nor_config.o
 .debug_info    0x0000082c      0x610 ./xip/fsl_flexspi_nor_boot.o
 .debug_info    0x00000e3c      0x14f ./utilities/fsl_assert.o
 .debug_info    0x00000f8b      0xaae ./utilities/fsl_debug_console.o
 .debug_info    0x00001a39      0xafe ./utilities/fsl_str.o
 .debug_info    0x00002537      0xd01 ./startup/startup_mimxrt1021.o
 .debug_info    0x00003238      0xa4f ./source/hello_world.o
 .debug_info    0x00003c87       0x3c ./source/semihost_hardfault.o
 .debug_info    0x00003cc3     0x1b2a ./drivers/fsl_clock.o
 .debug_info    0x000057ed     0x21d4 ./drivers/fsl_lpuart.o
 .debug_info    0x000079c1      0xc9e ./device/system_MIMXRT1021.o
 .debug_info    0x0000865f      0xa5c ./component/uart/lpuart_adapter.o
 .debug_info    0x000090bb      0x8de ./component/serial_manager/serial_manager.o
 .debug_info    0x00009999      0x582 ./component/serial_manager/serial_port_uart.o
 .debug_info    0x00009f1b     0x10c4 ./board/board.o
 .debug_info    0x0000afdf     0x1698 ./board/clock_config.o
 .debug_info    0x0000c677       0xd9 ./board/dcd.o
 .debug_info    0x0000c750      0x79f ./board/pin_mux.o

.debug_abbrev   0x00000000     0x20ad
 .debug_abbrev  0x00000000      0x16e ./xip/evkmimxrt1020_flexspi_nor_config.o
 .debug_abbrev  0x0000016e      0x13f ./xip/fsl_flexspi_nor_boot.o
 .debug_abbrev  0x000002ad       0xbe ./utilities/fsl_assert.o
 .debug_abbrev  0x0000036b      0x20b ./utilities/fsl_debug_console.o
 .debug_abbrev  0x00000576      0x24d ./utilities/fsl_str.o
 .debug_abbrev  0x000007c3      0x147 ./startup/startup_mimxrt1021.o
 .debug_abbrev  0x0000090a      0x23c ./source/hello_world.o
 .debug_abbrev  0x00000b46       0x31 ./source/semihost_hardfault.o
 .debug_abbrev  0x00000b77      0x38b ./drivers/fsl_clock.o
 .debug_abbrev  0x00000f02      0x354 ./drivers/fsl_lpuart.o
 .debug_abbrev  0x00001256      0x1c7 ./device/system_MIMXRT1021.o
 .debug_abbrev  0x0000141d      0x1e1 ./component/uart/lpuart_adapter.o
 .debug_abbrev  0x000015fe      0x240 ./component/serial_manager/serial_manager.o
 .debug_abbrev  0x0000183e      0x160 ./component/serial_manager/serial_port_uart.o
 .debug_abbrev  0x0000199e      0x2d0 ./board/board.o
 .debug_abbrev  0x00001c6e      0x218 ./board/clock_config.o
 .debug_abbrev  0x00001e86       0x9f ./board/dcd.o
 .debug_abbrev  0x00001f25      0x188 ./board/pin_mux.o

.debug_aranges  0x00000000      0xbd8
 .debug_aranges
                0x00000000       0x18 ./xip/evkmimxrt1020_flexspi_nor_config.o
 .debug_aranges
                0x00000018       0x18 ./xip/fsl_flexspi_nor_boot.o
 .debug_aranges
                0x00000030       0x20 ./utilities/fsl_assert.o
 .debug_aranges
                0x00000050       0x88 ./utilities/fsl_debug_console.o
 .debug_aranges
                0x000000d8       0xb0 ./utilities/fsl_str.o
 .debug_aranges
                0x00000188      0x4f0 ./startup/startup_mimxrt1021.o
 .debug_aranges
                0x00000678       0x28 ./source/hello_world.o
 .debug_aranges
                0x000006a0       0x20 ./source/semihost_hardfault.o
 .debug_aranges
                0x000006c0      0x128 ./drivers/fsl_clock.o
 .debug_aranges
                0x000007e8      0x160 ./drivers/fsl_lpuart.o
 .debug_aranges
                0x00000948       0x30 ./device/system_MIMXRT1021.o
 .debug_aranges
                0x00000978       0x50 ./component/uart/lpuart_adapter.o
 .debug_aranges
                0x000009c8       0x98 ./component/serial_manager/serial_manager.o
 .debug_aranges
                0x00000a60       0x48 ./component/serial_manager/serial_port_uart.o
 .debug_aranges
                0x00000aa8       0x58 ./board/board.o
 .debug_aranges
                0x00000b00       0x78 ./board/clock_config.o
 .debug_aranges
                0x00000b78       0x18 ./board/dcd.o
 .debug_aranges
                0x00000b90       0x48 ./board/pin_mux.o

.debug_macro    0x00000000    0x25f14
 .debug_macro   0x00000000      0x118 ./xip/evkmimxrt1020_flexspi_nor_config.o
 .debug_macro   0x00000118      0xb1a ./xip/evkmimxrt1020_flexspi_nor_config.o
 .debug_macro   0x00000c32       0x10 ./xip/evkmimxrt1020_flexspi_nor_config.o
 .debug_macro   0x00000c42      0x12e ./xip/evkmimxrt1020_flexspi_nor_config.o
 .debug_macro   0x00000d70      0x5b3 ./xip/evkmimxrt1020_flexspi_nor_config.o
 .debug_macro   0x00001323       0x22 ./xip/evkmimxrt1020_flexspi_nor_config.o
 .debug_macro   0x00001345       0x16 ./xip/evkmimxrt1020_flexspi_nor_config.o
 .debug_macro   0x0000135b       0x22 ./xip/evkmimxrt1020_flexspi_nor_config.o
 .debug_macro   0x0000137d       0x10 ./xip/evkmimxrt1020_flexspi_nor_config.o
 .debug_macro   0x0000138d       0x4d ./xip/evkmimxrt1020_flexspi_nor_config.o
 .debug_macro   0x000013da       0x1c ./xip/evkmimxrt1020_flexspi_nor_config.o
 .debug_macro   0x000013f6       0x22 ./xip/evkmimxrt1020_flexspi_nor_config.o
 .debug_macro   0x00001418      0x101 ./xip/evkmimxrt1020_flexspi_nor_config.o
 .debug_macro   0x00001519     0x1305 ./xip/evkmimxrt1020_flexspi_nor_config.o
 .debug_macro   0x0000281e      0x11f ./xip/evkmimxrt1020_flexspi_nor_config.o
 .debug_macro   0x0000293d       0x27 ./xip/evkmimxrt1020_flexspi_nor_config.o
 .debug_macro   0x00002964       0x1c ./xip/evkmimxrt1020_flexspi_nor_config.o
 .debug_macro   0x00002980    0x1ffc2 ./xip/evkmimxrt1020_flexspi_nor_config.o
 .debug_macro   0x00022942      0x6da ./xip/evkmimxrt1020_flexspi_nor_config.o
 .debug_macro   0x0002301c       0xde ./xip/evkmimxrt1020_flexspi_nor_config.o
 .debug_macro   0x000230fa      0x1fb ./xip/evkmimxrt1020_flexspi_nor_config.o
 .debug_macro   0x000232f5      0x1a4 ./xip/evkmimxrt1020_flexspi_nor_config.o
 .debug_macro   0x00023499      0x13f ./xip/fsl_flexspi_nor_boot.o
 .debug_macro   0x000235d8      0x106 ./xip/fsl_flexspi_nor_boot.o
 .debug_macro   0x000236de       0x10 ./xip/fsl_flexspi_nor_boot.o
 .debug_macro   0x000236ee      0x166 ./xip/fsl_flexspi_nor_boot.o
 .debug_macro   0x00023854       0x7c ./xip/fsl_flexspi_nor_boot.o
 .debug_macro   0x000238d0      0x133 ./utilities/fsl_assert.o
 .debug_macro   0x00023a03       0x1c ./utilities/fsl_assert.o
 .debug_macro   0x00023a1f       0x2e ./utilities/fsl_assert.o
 .debug_macro   0x00023a4d       0x2e ./utilities/fsl_assert.o
 .debug_macro   0x00023a7b       0x47 ./utilities/fsl_assert.o
 .debug_macro   0x00023ac2       0x2e ./utilities/fsl_assert.o
 .debug_macro   0x00023af0      0x19f ./utilities/fsl_debug_console.o
 .debug_macro   0x00023c8f       0x16 ./utilities/fsl_debug_console.o
 .debug_macro   0x00023ca5       0x10 ./utilities/fsl_debug_console.o
 .debug_macro   0x00023cb5       0x28 ./utilities/fsl_debug_console.o
 .debug_macro   0x00023cdd       0x3b ./utilities/fsl_debug_console.o
 .debug_macro   0x00023d18       0x34 ./utilities/fsl_debug_console.o
 .debug_macro   0x00023d4c      0x128 ./utilities/fsl_str.o
 .debug_macro   0x00023e74       0xc4 ./utilities/fsl_str.o
 .debug_macro   0x00023f38       0x1c ./utilities/fsl_str.o
 .debug_macro   0x00023f54       0x41 ./utilities/fsl_str.o
 .debug_macro   0x00023f95       0x29 ./startup/startup_mimxrt1021.o
 .debug_macro   0x00023fbe      0x1a3 ./source/hello_world.o
 .debug_macro   0x00024161      0x10c ./source/hello_world.o
 .debug_macro   0x0002426d       0x2e ./source/hello_world.o
 .debug_macro   0x0002429b       0x11 ./source/semihost_hardfault.o
 .debug_macro   0x000242ac      0x103 ./drivers/fsl_clock.o
 .debug_macro   0x000243af      0x112 ./drivers/fsl_lpuart.o
 .debug_macro   0x000244c1       0x10 ./drivers/fsl_lpuart.o
 .debug_macro   0x000244d1       0xa7 ./device/system_MIMXRT1021.o
 .debug_macro   0x00024578      0x10f ./component/uart/lpuart_adapter.o
 .debug_macro   0x00024687       0x16 ./component/uart/lpuart_adapter.o
 .debug_macro   0x0002469d       0x2e ./component/uart/lpuart_adapter.o
 .debug_macro   0x000246cb      0x146 ./component/serial_manager/serial_manager.o
 .debug_macro   0x00024811      0x12e ./component/serial_manager/serial_port_uart.o
 .debug_macro   0x0002493f      0x15d ./board/board.o
 .debug_macro   0x00024a9c     0x11e1 ./board/board.o
 .debug_macro   0x00025c7d      0x115 ./board/clock_config.o
 .debug_macro   0x00025d92       0x51 ./board/dcd.o
 .debug_macro   0x00025de3       0x22 ./board/dcd.o
 .debug_macro   0x00025e05      0x10f ./board/pin_mux.o

.debug_line     0x00000000     0x7474
 .debug_line    0x00000000      0x30f ./xip/evkmimxrt1020_flexspi_nor_config.o
 .debug_line    0x0000030f      0x347 ./xip/fsl_flexspi_nor_boot.o
 .debug_line    0x00000656      0x3a5 ./utilities/fsl_assert.o
 .debug_line    0x000009fb      0x73f ./utilities/fsl_debug_console.o
 .debug_line    0x0000113a      0xa38 ./utilities/fsl_str.o
 .debug_line    0x00001b72      0xe51 ./startup/startup_mimxrt1021.o
 .debug_line    0x000029c3      0x4d9 ./source/hello_world.o
 .debug_line    0x00002e9c       0x5a ./source/semihost_hardfault.o
 .debug_line    0x00002ef6      0xba7 ./drivers/fsl_clock.o
 .debug_line    0x00003a9d     0x11fc ./drivers/fsl_lpuart.o
 .debug_line    0x00004c99      0x4a9 ./device/system_MIMXRT1021.o
 .debug_line    0x00005142      0x486 ./component/uart/lpuart_adapter.o
 .debug_line    0x000055c8      0x709 ./component/serial_manager/serial_manager.o
 .debug_line    0x00005cd1      0x4d5 ./component/serial_manager/serial_port_uart.o
 .debug_line    0x000061a6      0x752 ./board/board.o
 .debug_line    0x000068f8      0x637 ./board/clock_config.o
 .debug_line    0x00006f2f      0x168 ./board/dcd.o
 .debug_line    0x00007097      0x3dd ./board/pin_mux.o

.debug_str      0x00000000   0x12bed9
 .debug_str     0x00000000   0x117e6a ./xip/evkmimxrt1020_flexspi_nor_config.o
                             0x117f01 (size before relaxing)
 .debug_str     0x00117e6a     0x1662 ./xip/fsl_flexspi_nor_boot.o
                             0x118812 (size before relaxing)
 .debug_str     0x001194cc      0x670 ./utilities/fsl_assert.o
                             0x116fcd (size before relaxing)
 .debug_str     0x00119b3c      0xa68 ./utilities/fsl_debug_console.o
                             0x1182a9 (size before relaxing)
 .debug_str     0x0011a5a4      0x831 ./utilities/fsl_str.o
                             0x1173c5 (size before relaxing)
 .debug_str     0x0011add5      0xd35 ./startup/startup_mimxrt1021.o
                               0x3d35 (size before relaxing)
 .debug_str     0x0011bb0a      0x3f1 ./source/hello_world.o
                             0x118edd (size before relaxing)
 .debug_str     0x0011befb       0x1f ./source/semihost_hardfault.o
                               0x2fbb (size before relaxing)
 .debug_str     0x0011bf1a      0xd47 ./drivers/fsl_clock.o
                             0x118095 (size before relaxing)
 .debug_str     0x0011cc61     0x1f71 ./drivers/fsl_lpuart.o
                             0x119372 (size before relaxing)
 .debug_str     0x0011ebd2       0xe5 ./device/system_MIMXRT1021.o
                             0x115668 (size before relaxing)
 .debug_str     0x0011ecb7      0x2f9 ./component/uart/lpuart_adapter.o
                             0x117af9 (size before relaxing)
 .debug_str     0x0011efb0      0x3dd ./component/serial_manager/serial_manager.o
                             0x1174c3 (size before relaxing)
 .debug_str     0x0011f38d       0xed ./component/serial_manager/serial_port_uart.o
                             0x1174a6 (size before relaxing)
 .debug_str     0x0011f47a     0xc56d ./board/board.o
                             0x124c2f (size before relaxing)
 .debug_str     0x0012b9e7      0x3d7 ./board/clock_config.o
                             0x124c84 (size before relaxing)
 .debug_str     0x0012bdbe       0x6c ./board/dcd.o
                               0x4762 (size before relaxing)
 .debug_str     0x0012be2a       0xaf ./board/pin_mux.o
                             0x1232a1 (size before relaxing)

.comment        0x00000000       0x76
 .comment       0x00000000       0x76 ./xip/evkmimxrt1020_flexspi_nor_config.o
                                 0x77 (size before relaxing)
 .comment       0x00000076       0x77 ./xip/fsl_flexspi_nor_boot.o
 .comment       0x00000076       0x77 ./utilities/fsl_assert.o
 .comment       0x00000076       0x77 ./utilities/fsl_debug_console.o
 .comment       0x00000076       0x77 ./utilities/fsl_str.o
 .comment       0x00000076       0x77 ./startup/startup_mimxrt1021.o
 .comment       0x00000076       0x77 ./source/hello_world.o
 .comment       0x00000076       0x77 ./source/semihost_hardfault.o
 .comment       0x00000076       0x77 ./drivers/fsl_clock.o
 .comment       0x00000076       0x77 ./drivers/fsl_lpuart.o
 .comment       0x00000076       0x77 ./device/system_MIMXRT1021.o
 .comment       0x00000076       0x77 ./component/uart/lpuart_adapter.o
 .comment       0x00000076       0x77 ./component/serial_manager/serial_manager.o
 .comment       0x00000076       0x77 ./component/serial_manager/serial_port_uart.o
 .comment       0x00000076       0x77 ./board/board.o
 .comment       0x00000076       0x77 ./board/clock_config.o
 .comment       0x00000076       0x77 ./board/dcd.o
 .comment       0x00000076       0x77 ./board/pin_mux.o
 .comment       0x00000076       0x77 c:/nxp/mcuxpressoide_11.1.1_3241/ide/plugins/com.nxp.mcuxpresso.tools.win32_11.1.0.202001081728/tools/bin/../lib/gcc/arm-none-eabi/8.3.1/../../../../arm-none-eabi/lib/thumb/v7e-m+dp/hard\libcr_nohost_nf.a(_cr__main.o)
 .comment       0x00000076       0x77 c:/nxp/mcuxpressoide_11.1.1_3241/ide/plugins/com.nxp.mcuxpresso.tools.win32_11.1.0.202001081728/tools/bin/../lib/gcc/arm-none-eabi/8.3.1/../../../../arm-none-eabi/lib/thumb/v7e-m+dp/hard\libcr_c.a(memcpy.o)
 .comment       0x00000076       0x77 c:/nxp/mcuxpressoide_11.1.1_3241/ide/plugins/com.nxp.mcuxpresso.tools.win32_11.1.0.202001081728/tools/bin/../lib/gcc/arm-none-eabi/8.3.1/../../../../arm-none-eabi/lib/thumb/v7e-m+dp/hard\libcr_c.a(memset.o)
 .comment       0x00000076       0x77 c:/nxp/mcuxpressoide_11.1.1_3241/ide/plugins/com.nxp.mcuxpresso.tools.win32_11.1.0.202001081728/tools/bin/../lib/gcc/arm-none-eabi/8.3.1/../../../../arm-none-eabi/lib/thumb/v7e-m+dp/hard\libcr_c.a(alloc.o)
 .comment       0x00000076       0x77 c:/nxp/mcuxpressoide_11.1.1_3241/ide/plugins/com.nxp.mcuxpresso.tools.win32_11.1.0.202001081728/tools/bin/../lib/gcc/arm-none-eabi/8.3.1/../../../../arm-none-eabi/lib/thumb/v7e-m+dp/hard\libcr_c.a(initio.o)
 .comment       0x00000076       0x77 c:/nxp/mcuxpressoide_11.1.1_3241/ide/plugins/com.nxp.mcuxpresso.tools.win32_11.1.0.202001081728/tools/bin/../lib/gcc/arm-none-eabi/8.3.1/../../../../arm-none-eabi/lib/thumb/v7e-m+dp/hard\libcr_c.a(setvbuf.o)
 .comment       0x00000076       0x77 c:/nxp/mcuxpressoide_11.1.1_3241/ide/plugins/com.nxp.mcuxpresso.tools.win32_11.1.0.202001081728/tools/bin/../lib/gcc/arm-none-eabi/8.3.1/../../../../arm-none-eabi/lib/thumb/v7e-m+dp/hard\libcr_c.a(strlen.o)
 .comment       0x00000076       0x77 c:/nxp/mcuxpressoide_11.1.1_3241/ide/plugins/com.nxp.mcuxpresso.tools.win32_11.1.0.202001081728/tools/bin/../lib/gcc/arm-none-eabi/8.3.1/../../../../arm-none-eabi/lib/thumb/v7e-m+dp/hard\libcr_c.a(_deferredlazyseek.o)
 .comment       0x00000076       0x77 c:/nxp/mcuxpressoide_11.1.1_3241/ide/plugins/com.nxp.mcuxpresso.tools.win32_11.1.0.202001081728/tools/bin/../lib/gcc/arm-none-eabi/8.3.1/../../../../arm-none-eabi/lib/thumb/v7e-m+dp/hard\libcr_c.a(_fdopen.o)
 .comment       0x00000076       0x77 c:/nxp/mcuxpressoide_11.1.1_3241/ide/plugins/com.nxp.mcuxpresso.tools.win32_11.1.0.202001081728/tools/bin/../lib/gcc/arm-none-eabi/8.3.1/../../../../arm-none-eabi/lib/thumb/v7e-m+dp/hard\libcr_c.a(_fflush.o)
 .comment       0x00000076       0x77 c:/nxp/mcuxpressoide_11.1.1_3241/ide/plugins/com.nxp.mcuxpresso.tools.win32_11.1.0.202001081728/tools/bin/../lib/gcc/arm-none-eabi/8.3.1/../../../../arm-none-eabi/lib/thumb/v7e-m+dp/hard\libcr_c.a(_writebuf.o)
 .comment       0x00000076       0x77 c:/nxp/mcuxpressoide_11.1.1_3241/ide/plugins/com.nxp.mcuxpresso.tools.win32_11.1.0.202001081728/tools/bin/../lib/gcc/arm-none-eabi/8.3.1/../../../../arm-none-eabi/lib/thumb/v7e-m+dp/hard\libcr_c.a(errno.o)
 .comment       0x00000076       0x77 c:/nxp/mcuxpressoide_11.1.1_3241/ide/plugins/com.nxp.mcuxpresso.tools.win32_11.1.0.202001081728/tools/bin/../lib/gcc/arm-none-eabi/8.3.1/../../../../arm-none-eabi/lib/thumb/v7e-m+dp/hard\libcr_c.a(fclose.o)
 .comment       0x00000076       0x77 c:/nxp/mcuxpressoide_11.1.1_3241/ide/plugins/com.nxp.mcuxpresso.tools.win32_11.1.0.202001081728/tools/bin/../lib/gcc/arm-none-eabi/8.3.1/../../../../arm-none-eabi/lib/thumb/v7e-m+dp/hard\libcr_c.a(fflush.o)
 .comment       0x00000076       0x77 c:/nxp/mcuxpressoide_11.1.1_3241/ide/plugins/com.nxp.mcuxpresso.tools.win32_11.1.0.202001081728/tools/bin/../lib/gcc/arm-none-eabi/8.3.1/../../../../arm-none-eabi/lib/thumb/v7e-m+dp/hard\libcr_c.a(fseek.o)
 .comment       0x00000076       0x77 c:/nxp/mcuxpressoide_11.1.1_3241/ide/plugins/com.nxp.mcuxpresso.tools.win32_11.1.0.202001081728/tools/bin/../lib/gcc/arm-none-eabi/8.3.1/../../../../arm-none-eabi/lib/thumb/v7e-m+dp/hard\libcr_c.a(ftell.o)
 .comment       0x00000076       0x77 c:/nxp/mcuxpressoide_11.1.1_3241/ide/plugins/com.nxp.mcuxpresso.tools.win32_11.1.0.202001081728/tools/bin/../lib/gcc/arm-none-eabi/8.3.1/../../../../arm-none-eabi/lib/thumb/v7e-m+dp/hard\libcr_c.a(remove.o)
 .comment       0x00000076       0x77 c:/nxp/mcuxpressoide_11.1.1_3241/ide/plugins/com.nxp.mcuxpresso.tools.win32_11.1.0.202001081728/tools/bin/../lib/gcc/arm-none-eabi/8.3.1/../../../../arm-none-eabi/lib/thumb/v7e-m+dp/hard\libcr_c.a(_do_fflush.o)
 .comment       0x00000076       0x77 c:/nxp/mcuxpressoide_11.1.1_3241/ide/plugins/com.nxp.mcuxpresso.tools.win32_11.1.0.202001081728/tools/bin/../lib/gcc/arm-none-eabi/8.3.1/../../../../arm-none-eabi/lib/thumb/v7e-m+dp/hard\libcr_nohost_nf.a(__ciob.o)
 .comment       0x00000076       0x77 c:/nxp/mcuxpressoide_11.1.1_3241/ide/plugins/com.nxp.mcuxpresso.tools.win32_11.1.0.202001081728/tools/bin/../lib/gcc/arm-none-eabi/8.3.1/../../../../arm-none-eabi/lib/thumb/v7e-m+dp/hard\libcr_nohost_nf.a(__sys_close.o)
 .comment       0x00000076       0x77 c:/nxp/mcuxpressoide_11.1.1_3241/ide/plugins/com.nxp.mcuxpresso.tools.win32_11.1.0.202001081728/tools/bin/../lib/gcc/arm-none-eabi/8.3.1/../../../../arm-none-eabi/lib/thumb/v7e-m+dp/hard\libcr_nohost_nf.a(__sys_flen.o)
 .comment       0x00000076       0x77 c:/nxp/mcuxpressoide_11.1.1_3241/ide/plugins/com.nxp.mcuxpresso.tools.win32_11.1.0.202001081728/tools/bin/../lib/gcc/arm-none-eabi/8.3.1/../../../../arm-none-eabi/lib/thumb/v7e-m+dp/hard\libcr_nohost_nf.a(__sys_istty.o)
 .comment       0x00000076       0x77 c:/nxp/mcuxpressoide_11.1.1_3241/ide/plugins/com.nxp.mcuxpresso.tools.win32_11.1.0.202001081728/tools/bin/../lib/gcc/arm-none-eabi/8.3.1/../../../../arm-none-eabi/lib/thumb/v7e-m+dp/hard\libcr_nohost_nf.a(__sys_remove.o)
 .comment       0x00000076       0x77 c:/nxp/mcuxpressoide_11.1.1_3241/ide/plugins/com.nxp.mcuxpresso.tools.win32_11.1.0.202001081728/tools/bin/../lib/gcc/arm-none-eabi/8.3.1/../../../../arm-none-eabi/lib/thumb/v7e-m+dp/hard\libcr_nohost_nf.a(__sys_seek.o)
 .comment       0x00000076       0x77 c:/nxp/mcuxpressoide_11.1.1_3241/ide/plugins/com.nxp.mcuxpresso.tools.win32_11.1.0.202001081728/tools/bin/../lib/gcc/arm-none-eabi/8.3.1/../../../../arm-none-eabi/lib/thumb/v7e-m+dp/hard\libcr_nohost_nf.a(__sys_tmpnam.o)
 .comment       0x00000076       0x77 c:/nxp/mcuxpressoide_11.1.1_3241/ide/plugins/com.nxp.mcuxpresso.tools.win32_11.1.0.202001081728/tools/bin/../lib/gcc/arm-none-eabi/8.3.1/../../../../arm-none-eabi/lib/thumb/v7e-m+dp/hard\libcr_nohost_nf.a(__sys_write.o)

.ARM.attributes
                0x00000000       0x35
 .ARM.attributes
                0x00000000       0x37 ./xip/evkmimxrt1020_flexspi_nor_config.o
 .ARM.attributes
                0x00000037       0x37 ./xip/fsl_flexspi_nor_boot.o
 .ARM.attributes
                0x0000006e       0x32 ./utilities/fsl_assert.o
 .ARM.attributes
                0x000000a0       0x32 ./utilities/fsl_debug_console.o
 .ARM.attributes
                0x000000d2       0x32 ./utilities/fsl_str.o
 .ARM.attributes
                0x00000104       0x32 ./startup/startup_mimxrt1021.o
 .ARM.attributes
                0x00000136       0x32 ./source/hello_world.o
 .ARM.attributes
                0x00000168       0x32 ./source/semihost_hardfault.o
 .ARM.attributes
                0x0000019a       0x32 ./drivers/fsl_clock.o
 .ARM.attributes
                0x000001cc       0x32 ./drivers/fsl_lpuart.o
 .ARM.attributes
                0x000001fe       0x32 ./device/system_MIMXRT1021.o
 .ARM.attributes
                0x00000230       0x32 ./component/uart/lpuart_adapter.o
 .ARM.attributes
                0x00000262       0x32 ./component/serial_manager/serial_manager.o
 .ARM.attributes
                0x00000294       0x32 ./component/serial_manager/serial_port_uart.o
 .ARM.attributes
                0x000002c6       0x32 ./board/board.o
 .ARM.attributes
                0x000002f8       0x32 ./board/clock_config.o
 .ARM.attributes
                0x0000032a       0x37 ./board/dcd.o
 .ARM.attributes
                0x00000361       0x32 ./board/pin_mux.o
 .ARM.attributes
                0x00000393       0x32 c:/nxp/mcuxpressoide_11.1.1_3241/ide/plugins/com.nxp.mcuxpresso.tools.win32_11.1.0.202001081728/tools/bin/../lib/gcc/arm-none-eabi/8.3.1/../../../../arm-none-eabi/lib/thumb/v7e-m+dp/hard\libcr_nohost_nf.a(_cr__main.o)
 .ARM.attributes
                0x000003c5       0x32 c:/nxp/mcuxpressoide_11.1.1_3241/ide/plugins/com.nxp.mcuxpresso.tools.win32_11.1.0.202001081728/tools/bin/../lib/gcc/arm-none-eabi/8.3.1/../../../../arm-none-eabi/lib/thumb/v7e-m+dp/hard\libcr_c.a(memcpy.o)
 .ARM.attributes
                0x000003f7       0x32 c:/nxp/mcuxpressoide_11.1.1_3241/ide/plugins/com.nxp.mcuxpresso.tools.win32_11.1.0.202001081728/tools/bin/../lib/gcc/arm-none-eabi/8.3.1/../../../../arm-none-eabi/lib/thumb/v7e-m+dp/hard\libcr_c.a(memset.o)
 .ARM.attributes
                0x00000429       0x32 c:/nxp/mcuxpressoide_11.1.1_3241/ide/plugins/com.nxp.mcuxpresso.tools.win32_11.1.0.202001081728/tools/bin/../lib/gcc/arm-none-eabi/8.3.1/../../../../arm-none-eabi/lib/thumb/v7e-m+dp/hard\libcr_c.a(alloc.o)
 .ARM.attributes
                0x0000045b       0x32 c:/nxp/mcuxpressoide_11.1.1_3241/ide/plugins/com.nxp.mcuxpresso.tools.win32_11.1.0.202001081728/tools/bin/../lib/gcc/arm-none-eabi/8.3.1/../../../../arm-none-eabi/lib/thumb/v7e-m+dp/hard\libcr_c.a(initio.o)
 .ARM.attributes
                0x0000048d       0x32 c:/nxp/mcuxpressoide_11.1.1_3241/ide/plugins/com.nxp.mcuxpresso.tools.win32_11.1.0.202001081728/tools/bin/../lib/gcc/arm-none-eabi/8.3.1/../../../../arm-none-eabi/lib/thumb/v7e-m+dp/hard\libcr_c.a(setvbuf.o)
 .ARM.attributes
                0x000004bf       0x32 c:/nxp/mcuxpressoide_11.1.1_3241/ide/plugins/com.nxp.mcuxpresso.tools.win32_11.1.0.202001081728/tools/bin/../lib/gcc/arm-none-eabi/8.3.1/../../../../arm-none-eabi/lib/thumb/v7e-m+dp/hard\libcr_c.a(strlen.o)
 .ARM.attributes
                0x000004f1       0x32 c:/nxp/mcuxpressoide_11.1.1_3241/ide/plugins/com.nxp.mcuxpresso.tools.win32_11.1.0.202001081728/tools/bin/../lib/gcc/arm-none-eabi/8.3.1/../../../../arm-none-eabi/lib/thumb/v7e-m+dp/hard\libcr_c.a(_deferredlazyseek.o)
 .ARM.attributes
                0x00000523       0x32 c:/nxp/mcuxpressoide_11.1.1_3241/ide/plugins/com.nxp.mcuxpresso.tools.win32_11.1.0.202001081728/tools/bin/../lib/gcc/arm-none-eabi/8.3.1/../../../../arm-none-eabi/lib/thumb/v7e-m+dp/hard\libcr_c.a(_fdopen.o)
 .ARM.attributes
                0x00000555       0x32 c:/nxp/mcuxpressoide_11.1.1_3241/ide/plugins/com.nxp.mcuxpresso.tools.win32_11.1.0.202001081728/tools/bin/../lib/gcc/arm-none-eabi/8.3.1/../../../../arm-none-eabi/lib/thumb/v7e-m+dp/hard\libcr_c.a(_fflush.o)
 .ARM.attributes
                0x00000587       0x32 c:/nxp/mcuxpressoide_11.1.1_3241/ide/plugins/com.nxp.mcuxpresso.tools.win32_11.1.0.202001081728/tools/bin/../lib/gcc/arm-none-eabi/8.3.1/../../../../arm-none-eabi/lib/thumb/v7e-m+dp/hard\libcr_c.a(_writebuf.o)
 .ARM.attributes
                0x000005b9       0x37 c:/nxp/mcuxpressoide_11.1.1_3241/ide/plugins/com.nxp.mcuxpresso.tools.win32_11.1.0.202001081728/tools/bin/../lib/gcc/arm-none-eabi/8.3.1/../../../../arm-none-eabi/lib/thumb/v7e-m+dp/hard\libcr_c.a(errno.o)
 .ARM.attributes
                0x000005f0       0x32 c:/nxp/mcuxpressoide_11.1.1_3241/ide/plugins/com.nxp.mcuxpresso.tools.win32_11.1.0.202001081728/tools/bin/../lib/gcc/arm-none-eabi/8.3.1/../../../../arm-none-eabi/lib/thumb/v7e-m+dp/hard\libcr_c.a(fclose.o)
 .ARM.attributes
                0x00000622       0x32 c:/nxp/mcuxpressoide_11.1.1_3241/ide/plugins/com.nxp.mcuxpresso.tools.win32_11.1.0.202001081728/tools/bin/../lib/gcc/arm-none-eabi/8.3.1/../../../../arm-none-eabi/lib/thumb/v7e-m+dp/hard\libcr_c.a(fflush.o)
 .ARM.attributes
                0x00000654       0x32 c:/nxp/mcuxpressoide_11.1.1_3241/ide/plugins/com.nxp.mcuxpresso.tools.win32_11.1.0.202001081728/tools/bin/../lib/gcc/arm-none-eabi/8.3.1/../../../../arm-none-eabi/lib/thumb/v7e-m+dp/hard\libcr_c.a(fseek.o)
 .ARM.attributes
                0x00000686       0x32 c:/nxp/mcuxpressoide_11.1.1_3241/ide/plugins/com.nxp.mcuxpresso.tools.win32_11.1.0.202001081728/tools/bin/../lib/gcc/arm-none-eabi/8.3.1/../../../../arm-none-eabi/lib/thumb/v7e-m+dp/hard\libcr_c.a(ftell.o)
 .ARM.attributes
                0x000006b8       0x32 c:/nxp/mcuxpressoide_11.1.1_3241/ide/plugins/com.nxp.mcuxpresso.tools.win32_11.1.0.202001081728/tools/bin/../lib/gcc/arm-none-eabi/8.3.1/../../../../arm-none-eabi/lib/thumb/v7e-m+dp/hard\libcr_c.a(remove.o)
 .ARM.attributes
                0x000006ea       0x32 c:/nxp/mcuxpressoide_11.1.1_3241/ide/plugins/com.nxp.mcuxpresso.tools.win32_11.1.0.202001081728/tools/bin/../lib/gcc/arm-none-eabi/8.3.1/../../../../arm-none-eabi/lib/thumb/v7e-m+dp/hard\libcr_c.a(_do_fflush.o)
 .ARM.attributes
                0x0000071c       0x1e c:/nxp/mcuxpressoide_11.1.1_3241/ide/plugins/com.nxp.mcuxpresso.tools.win32_11.1.0.202001081728/tools/bin/../lib/gcc/arm-none-eabi/8.3.1/thumb/v7e-m+dp/hard\libcr_eabihelpers.a(memcpy.o)
 .ARM.attributes
                0x0000073a       0x37 c:/nxp/mcuxpressoide_11.1.1_3241/ide/plugins/com.nxp.mcuxpresso.tools.win32_11.1.0.202001081728/tools/bin/../lib/gcc/arm-none-eabi/8.3.1/../../../../arm-none-eabi/lib/thumb/v7e-m+dp/hard\libcr_nohost_nf.a(__ciob.o)
 .ARM.attributes
                0x00000771       0x32 c:/nxp/mcuxpressoide_11.1.1_3241/ide/plugins/com.nxp.mcuxpresso.tools.win32_11.1.0.202001081728/tools/bin/../lib/gcc/arm-none-eabi/8.3.1/../../../../arm-none-eabi/lib/thumb/v7e-m+dp/hard\libcr_nohost_nf.a(__sys_close.o)
 .ARM.attributes
                0x000007a3       0x32 c:/nxp/mcuxpressoide_11.1.1_3241/ide/plugins/com.nxp.mcuxpresso.tools.win32_11.1.0.202001081728/tools/bin/../lib/gcc/arm-none-eabi/8.3.1/../../../../arm-none-eabi/lib/thumb/v7e-m+dp/hard\libcr_nohost_nf.a(__sys_flen.o)
 .ARM.attributes
                0x000007d5       0x32 c:/nxp/mcuxpressoide_11.1.1_3241/ide/plugins/com.nxp.mcuxpresso.tools.win32_11.1.0.202001081728/tools/bin/../lib/gcc/arm-none-eabi/8.3.1/../../../../arm-none-eabi/lib/thumb/v7e-m+dp/hard\libcr_nohost_nf.a(__sys_istty.o)
 .ARM.attributes
                0x00000807       0x32 c:/nxp/mcuxpressoide_11.1.1_3241/ide/plugins/com.nxp.mcuxpresso.tools.win32_11.1.0.202001081728/tools/bin/../lib/gcc/arm-none-eabi/8.3.1/../../../../arm-none-eabi/lib/thumb/v7e-m+dp/hard\libcr_nohost_nf.a(__sys_remove.o)
 .ARM.attributes
                0x00000839       0x32 c:/nxp/mcuxpressoide_11.1.1_3241/ide/plugins/com.nxp.mcuxpresso.tools.win32_11.1.0.202001081728/tools/bin/../lib/gcc/arm-none-eabi/8.3.1/../../../../arm-none-eabi/lib/thumb/v7e-m+dp/hard\libcr_nohost_nf.a(__sys_seek.o)
 .ARM.attributes
                0x0000086b       0x32 c:/nxp/mcuxpressoide_11.1.1_3241/ide/plugins/com.nxp.mcuxpresso.tools.win32_11.1.0.202001081728/tools/bin/../lib/gcc/arm-none-eabi/8.3.1/../../../../arm-none-eabi/lib/thumb/v7e-m+dp/hard\libcr_nohost_nf.a(__sys_tmpnam.o)
 .ARM.attributes
                0x0000089d       0x32 c:/nxp/mcuxpressoide_11.1.1_3241/ide/plugins/com.nxp.mcuxpresso.tools.win32_11.1.0.202001081728/tools/bin/../lib/gcc/arm-none-eabi/8.3.1/../../../../arm-none-eabi/lib/thumb/v7e-m+dp/hard\libcr_nohost_nf.a(__sys_write.o)

.debug_ranges   0x00000000      0xab8
 .debug_ranges  0x00000000       0x10 ./utilities/fsl_assert.o
 .debug_ranges  0x00000010       0x78 ./utilities/fsl_debug_console.o
 .debug_ranges  0x00000088       0xa0 ./utilities/fsl_str.o
 .debug_ranges  0x00000128      0x4e0 ./startup/startup_mimxrt1021.o
 .debug_ranges  0x00000608       0x18 ./source/hello_world.o
 .debug_ranges  0x00000620       0x10 ./source/semihost_hardfault.o
 .debug_ranges  0x00000630      0x118 ./drivers/fsl_clock.o
 .debug_ranges  0x00000748      0x150 ./drivers/fsl_lpuart.o
 .debug_ranges  0x00000898       0x20 ./device/system_MIMXRT1021.o
 .debug_ranges  0x000008b8       0x40 ./component/uart/lpuart_adapter.o
 .debug_ranges  0x000008f8       0x88 ./component/serial_manager/serial_manager.o
 .debug_ranges  0x00000980       0x38 ./component/serial_manager/serial_port_uart.o
 .debug_ranges  0x000009b8       0x60 ./board/board.o
 .debug_ranges  0x00000a18       0x68 ./board/clock_config.o
 .debug_ranges  0x00000a80       0x38 ./board/pin_mux.o

.debug_frame    0x00000000     0x2784
 .debug_frame   0x00000000       0x30 ./utilities/fsl_assert.o
 .debug_frame   0x00000030      0x244 ./utilities/fsl_debug_console.o
 .debug_frame   0x00000274      0x304 ./utilities/fsl_str.o
 .debug_frame   0x00000578      0xe44 ./startup/startup_mimxrt1021.o
 .debug_frame   0x000013bc       0x58 ./source/hello_world.o
 .debug_frame   0x00001414       0x20 ./source/semihost_hardfault.o
 .debug_frame   0x00001434      0x4d4 ./drivers/fsl_clock.o
 .debug_frame   0x00001908      0x5bc ./drivers/fsl_lpuart.o
 .debug_frame   0x00001ec4       0x7c ./device/system_MIMXRT1021.o
 .debug_frame   0x00001f40      0x114 ./component/uart/lpuart_adapter.o
 .debug_frame   0x00002054      0x258 ./component/serial_manager/serial_manager.o
 .debug_frame   0x000022ac       0xe8 ./component/serial_manager/serial_port_uart.o
 .debug_frame   0x00002394      0x140 ./board/board.o
 .debug_frame   0x000024d4      0x1c8 ./board/clock_config.o
 .debug_frame   0x0000269c       0xe8 ./board/pin_mux.o

Cross Reference Table

Symbol                                            File
ACMP1_DriverIRQHandler                            ./startup/startup_mimxrt1021.o
ACMP1_IRQHandler                                  ./startup/startup_mimxrt1021.o
ACMP2_DriverIRQHandler                            ./startup/startup_mimxrt1021.o
ACMP2_IRQHandler                                  ./startup/startup_mimxrt1021.o
ACMP3_DriverIRQHandler                            ./startup/startup_mimxrt1021.o
ACMP3_IRQHandler                                  ./startup/startup_mimxrt1021.o
ACMP4_DriverIRQHandler                            ./startup/startup_mimxrt1021.o
ACMP4_IRQHandler                                  ./startup/startup_mimxrt1021.o
ADC1_DriverIRQHandler                             ./startup/startup_mimxrt1021.o
ADC1_IRQHandler                                   ./startup/startup_mimxrt1021.o
ADC2_DriverIRQHandler                             ./startup/startup_mimxrt1021.o
ADC2_IRQHandler                                   ./startup/startup_mimxrt1021.o
ADC_ETC_ERROR_IRQ_DriverIRQHandler                ./startup/startup_mimxrt1021.o
ADC_ETC_ERROR_IRQ_IRQHandler                      ./startup/startup_mimxrt1021.o
ADC_ETC_IRQ0_DriverIRQHandler                     ./startup/startup_mimxrt1021.o
ADC_ETC_IRQ0_IRQHandler                           ./startup/startup_mimxrt1021.o
ADC_ETC_IRQ1_DriverIRQHandler                     ./startup/startup_mimxrt1021.o
ADC_ETC_IRQ1_IRQHandler                           ./startup/startup_mimxrt1021.o
ADC_ETC_IRQ2_DriverIRQHandler                     ./startup/startup_mimxrt1021.o
ADC_ETC_IRQ2_IRQHandler                           ./startup/startup_mimxrt1021.o
BEE_DriverIRQHandler                              ./startup/startup_mimxrt1021.o
BEE_IRQHandler                                    ./startup/startup_mimxrt1021.o
BOARD_BootClockRUN                                ./board/clock_config.o
BOARD_ConfigMPU                                   ./board/board.o
                                                  ./source/hello_world.o
BOARD_DebugConsoleSrcFreq                         ./board/board.o
BOARD_InitBootClocks                              ./board/clock_config.o
                                                  ./source/hello_world.o
BOARD_InitBootPins                                ./board/pin_mux.o
BOARD_InitDebugConsole                            ./board/board.o
                                                  ./source/hello_world.o
BOARD_InitPins                                    ./board/pin_mux.o
                                                  ./source/hello_world.o
BusFault_Handler                                  ./startup/startup_mimxrt1021.o
CAN1_DriverIRQHandler                             ./startup/startup_mimxrt1021.o
CAN1_IRQHandler                                   ./startup/startup_mimxrt1021.o
CAN2_DriverIRQHandler                             ./startup/startup_mimxrt1021.o
CAN2_IRQHandler                                   ./startup/startup_mimxrt1021.o
CCM_1_DriverIRQHandler                            ./startup/startup_mimxrt1021.o
CCM_1_IRQHandler                                  ./startup/startup_mimxrt1021.o
CCM_2_DriverIRQHandler                            ./startup/startup_mimxrt1021.o
CCM_2_IRQHandler                                  ./startup/startup_mimxrt1021.o
CLOCK_DeinitAudioPll                              ./drivers/fsl_clock.o
                                                  ./board/clock_config.o
CLOCK_DeinitEnetPll                               ./drivers/fsl_clock.o
CLOCK_DeinitExternalClk                           ./drivers/fsl_clock.o
CLOCK_DeinitRcOsc24M                              ./drivers/fsl_clock.o
CLOCK_DeinitSysPfd                                ./drivers/fsl_clock.o
CLOCK_DeinitSysPll                                ./drivers/fsl_clock.o
CLOCK_DeinitUsb1Pfd                               ./drivers/fsl_clock.o
CLOCK_DeinitUsb1Pll                               ./drivers/fsl_clock.o
CLOCK_DisableUsbhs0PhyPllClock                    ./drivers/fsl_clock.o
CLOCK_EnableUsbhs0Clock                           ./drivers/fsl_clock.o
CLOCK_EnableUsbhs0PhyPllClock                     ./drivers/fsl_clock.o
CLOCK_GetAhbFreq                                  ./drivers/fsl_clock.o
CLOCK_GetFreq                                     ./drivers/fsl_clock.o
CLOCK_GetIpgFreq                                  ./drivers/fsl_clock.o
CLOCK_GetPerClkFreq                               ./drivers/fsl_clock.o
CLOCK_GetPllFreq                                  ./drivers/fsl_clock.o
                                                  ./board/board.o
CLOCK_GetSemcFreq                                 ./drivers/fsl_clock.o
CLOCK_GetSysPfdFreq                               ./drivers/fsl_clock.o
CLOCK_GetUsb1PfdFreq                              ./drivers/fsl_clock.o
CLOCK_InitAudioPll                                ./drivers/fsl_clock.o
CLOCK_InitEnetPll                                 ./drivers/fsl_clock.o
                                                  ./board/clock_config.o
CLOCK_InitExternalClk                             ./drivers/fsl_clock.o
                                                  ./board/clock_config.o
CLOCK_InitRcOsc24M                                ./drivers/fsl_clock.o
                                                  ./board/clock_config.o
CLOCK_InitSysPfd                                  ./drivers/fsl_clock.o
CLOCK_InitSysPll                                  ./drivers/fsl_clock.o
CLOCK_InitUsb1Pfd                                 ./drivers/fsl_clock.o
CLOCK_InitUsb1Pll                                 ./drivers/fsl_clock.o
CLOCK_SwitchOsc                                   ./drivers/fsl_clock.o
                                                  ./board/clock_config.o
CORE_DriverIRQHandler                             ./startup/startup_mimxrt1021.o
CORE_IRQHandler                                   ./startup/startup_mimxrt1021.o
CSU_DriverIRQHandler                              ./startup/startup_mimxrt1021.o
CSU_IRQHandler                                    ./startup/startup_mimxrt1021.o
CTI0_ERROR_DriverIRQHandler                       ./startup/startup_mimxrt1021.o
CTI0_ERROR_IRQHandler                             ./startup/startup_mimxrt1021.o
CTI1_ERROR_DriverIRQHandler                       ./startup/startup_mimxrt1021.o
CTI1_ERROR_IRQHandler                             ./startup/startup_mimxrt1021.o
DCDC_DriverIRQHandler                             ./startup/startup_mimxrt1021.o
DCDC_IRQHandler                                   ./startup/startup_mimxrt1021.o
DCP_DriverIRQHandler                              ./startup/startup_mimxrt1021.o
DCP_IRQHandler                                    ./startup/startup_mimxrt1021.o
DCP_VMI_DriverIRQHandler                          ./startup/startup_mimxrt1021.o
DCP_VMI_IRQHandler                                ./startup/startup_mimxrt1021.o
DMA0_DMA16_DriverIRQHandler                       ./startup/startup_mimxrt1021.o
DMA0_DMA16_IRQHandler                             ./startup/startup_mimxrt1021.o
DMA10_DMA26_DriverIRQHandler                      ./startup/startup_mimxrt1021.o
DMA10_DMA26_IRQHandler                            ./startup/startup_mimxrt1021.o
DMA11_DMA27_DriverIRQHandler                      ./startup/startup_mimxrt1021.o
DMA11_DMA27_IRQHandler                            ./startup/startup_mimxrt1021.o
DMA12_DMA28_DriverIRQHandler                      ./startup/startup_mimxrt1021.o
DMA12_DMA28_IRQHandler                            ./startup/startup_mimxrt1021.o
DMA13_DMA29_DriverIRQHandler                      ./startup/startup_mimxrt1021.o
DMA13_DMA29_IRQHandler                            ./startup/startup_mimxrt1021.o
DMA14_DMA30_DriverIRQHandler                      ./startup/startup_mimxrt1021.o
DMA14_DMA30_IRQHandler                            ./startup/startup_mimxrt1021.o
DMA15_DMA31_DriverIRQHandler                      ./startup/startup_mimxrt1021.o
DMA15_DMA31_IRQHandler                            ./startup/startup_mimxrt1021.o
DMA1_DMA17_DriverIRQHandler                       ./startup/startup_mimxrt1021.o
DMA1_DMA17_IRQHandler                             ./startup/startup_mimxrt1021.o
DMA2_DMA18_DriverIRQHandler                       ./startup/startup_mimxrt1021.o
DMA2_DMA18_IRQHandler                             ./startup/startup_mimxrt1021.o
DMA3_DMA19_DriverIRQHandler                       ./startup/startup_mimxrt1021.o
DMA3_DMA19_IRQHandler                             ./startup/startup_mimxrt1021.o
DMA4_DMA20_DriverIRQHandler                       ./startup/startup_mimxrt1021.o
DMA4_DMA20_IRQHandler                             ./startup/startup_mimxrt1021.o
DMA5_DMA21_DriverIRQHandler                       ./startup/startup_mimxrt1021.o
DMA5_DMA21_IRQHandler                             ./startup/startup_mimxrt1021.o
DMA6_DMA22_DriverIRQHandler                       ./startup/startup_mimxrt1021.o
DMA6_DMA22_IRQHandler                             ./startup/startup_mimxrt1021.o
DMA7_DMA23_DriverIRQHandler                       ./startup/startup_mimxrt1021.o
DMA7_DMA23_IRQHandler                             ./startup/startup_mimxrt1021.o
DMA8_DMA24_DriverIRQHandler                       ./startup/startup_mimxrt1021.o
DMA8_DMA24_IRQHandler                             ./startup/startup_mimxrt1021.o
DMA9_DMA25_DriverIRQHandler                       ./startup/startup_mimxrt1021.o
DMA9_DMA25_IRQHandler                             ./startup/startup_mimxrt1021.o
DMA_ERROR_DriverIRQHandler                        ./startup/startup_mimxrt1021.o
DMA_ERROR_IRQHandler                              ./startup/startup_mimxrt1021.o
DbgConsole_BlockingPrintf                         ./utilities/fsl_debug_console.o
DbgConsole_Deinit                                 ./utilities/fsl_debug_console.o
DbgConsole_Flush                                  ./utilities/fsl_debug_console.o
DbgConsole_Getchar                                ./utilities/fsl_debug_console.o
DbgConsole_Init                                   ./utilities/fsl_debug_console.o
                                                  ./board/board.o
DbgConsole_Printf                                 ./utilities/fsl_debug_console.o
                                                  ./source/hello_world.o
                                                  ./utilities/fsl_assert.o
DbgConsole_Putchar                                ./utilities/fsl_debug_console.o
DbgConsole_ReadCharacter                          ./utilities/fsl_debug_console.o
DbgConsole_ReadLine                               ./utilities/fsl_debug_console.o
DbgConsole_ReadOneCharacter                       ./utilities/fsl_debug_console.o
DbgConsole_Scanf                                  ./utilities/fsl_debug_console.o
DbgConsole_SendData                               ./utilities/fsl_debug_console.o
DbgConsole_SendDataReliable                       ./utilities/fsl_debug_console.o
DebugMon_Handler                                  ./startup/startup_mimxrt1021.o
ENC1_DriverIRQHandler                             ./startup/startup_mimxrt1021.o
ENC1_IRQHandler                                   ./startup/startup_mimxrt1021.o
ENC2_DriverIRQHandler                             ./startup/startup_mimxrt1021.o
ENC2_IRQHandler                                   ./startup/startup_mimxrt1021.o
ENET_1588_Timer_DriverIRQHandler                  ./startup/startup_mimxrt1021.o
ENET_1588_Timer_IRQHandler                        ./startup/startup_mimxrt1021.o
ENET_DriverIRQHandler                             ./startup/startup_mimxrt1021.o
ENET_IRQHandler                                   ./startup/startup_mimxrt1021.o
EWM_DriverIRQHandler                              ./startup/startup_mimxrt1021.o
EWM_IRQHandler                                    ./startup/startup_mimxrt1021.o
FLEXIO1_DriverIRQHandler                          ./startup/startup_mimxrt1021.o
FLEXIO1_IRQHandler                                ./startup/startup_mimxrt1021.o
FLEXRAM_DriverIRQHandler                          ./startup/startup_mimxrt1021.o
FLEXRAM_IRQHandler                                ./startup/startup_mimxrt1021.o
FLEXSPI_DriverIRQHandler                          ./startup/startup_mimxrt1021.o
FLEXSPI_IRQHandler                                ./startup/startup_mimxrt1021.o
GPC_DriverIRQHandler                              ./startup/startup_mimxrt1021.o
GPC_IRQHandler                                    ./startup/startup_mimxrt1021.o
GPIO1_Combined_0_15_DriverIRQHandler              ./startup/startup_mimxrt1021.o
GPIO1_Combined_0_15_IRQHandler                    ./startup/startup_mimxrt1021.o
GPIO1_Combined_16_31_DriverIRQHandler             ./startup/startup_mimxrt1021.o
GPIO1_Combined_16_31_IRQHandler                   ./startup/startup_mimxrt1021.o
GPIO1_INT0_DriverIRQHandler                       ./startup/startup_mimxrt1021.o
GPIO1_INT0_IRQHandler                             ./startup/startup_mimxrt1021.o
GPIO1_INT1_DriverIRQHandler                       ./startup/startup_mimxrt1021.o
GPIO1_INT1_IRQHandler                             ./startup/startup_mimxrt1021.o
GPIO1_INT2_DriverIRQHandler                       ./startup/startup_mimxrt1021.o
GPIO1_INT2_IRQHandler                             ./startup/startup_mimxrt1021.o
GPIO1_INT3_DriverIRQHandler                       ./startup/startup_mimxrt1021.o
GPIO1_INT3_IRQHandler                             ./startup/startup_mimxrt1021.o
GPIO1_INT4_DriverIRQHandler                       ./startup/startup_mimxrt1021.o
GPIO1_INT4_IRQHandler                             ./startup/startup_mimxrt1021.o
GPIO1_INT5_DriverIRQHandler                       ./startup/startup_mimxrt1021.o
GPIO1_INT5_IRQHandler                             ./startup/startup_mimxrt1021.o
GPIO1_INT6_DriverIRQHandler                       ./startup/startup_mimxrt1021.o
GPIO1_INT6_IRQHandler                             ./startup/startup_mimxrt1021.o
GPIO1_INT7_DriverIRQHandler                       ./startup/startup_mimxrt1021.o
GPIO1_INT7_IRQHandler                             ./startup/startup_mimxrt1021.o
GPIO2_Combined_0_15_DriverIRQHandler              ./startup/startup_mimxrt1021.o
GPIO2_Combined_0_15_IRQHandler                    ./startup/startup_mimxrt1021.o
GPIO2_Combined_16_31_DriverIRQHandler             ./startup/startup_mimxrt1021.o
GPIO2_Combined_16_31_IRQHandler                   ./startup/startup_mimxrt1021.o
GPIO3_Combined_0_15_DriverIRQHandler              ./startup/startup_mimxrt1021.o
GPIO3_Combined_0_15_IRQHandler                    ./startup/startup_mimxrt1021.o
GPIO3_Combined_16_31_DriverIRQHandler             ./startup/startup_mimxrt1021.o
GPIO3_Combined_16_31_IRQHandler                   ./startup/startup_mimxrt1021.o
GPIO5_Combined_0_15_DriverIRQHandler              ./startup/startup_mimxrt1021.o
GPIO5_Combined_0_15_IRQHandler                    ./startup/startup_mimxrt1021.o
GPIO5_Combined_16_31_DriverIRQHandler             ./startup/startup_mimxrt1021.o
GPIO5_Combined_16_31_IRQHandler                   ./startup/startup_mimxrt1021.o
GPIO_PinInit                                      ./drivers/fsl_gpio.o
GPIO_PinSetInterruptConfig                        ./drivers/fsl_gpio.o
GPIO_PinWrite                                     ./drivers/fsl_gpio.o
GPR_IRQ_DriverIRQHandler                          ./startup/startup_mimxrt1021.o
GPR_IRQ_IRQHandler                                ./startup/startup_mimxrt1021.o
GPT1_DriverIRQHandler                             ./startup/startup_mimxrt1021.o
GPT1_IRQHandler                                   ./startup/startup_mimxrt1021.o
GPT2_DriverIRQHandler                             ./startup/startup_mimxrt1021.o
GPT2_IRQHandler                                   ./startup/startup_mimxrt1021.o
HAL_UartDeinit                                    ./component/uart/lpuart_adapter.o
                                                  ./component/serial_manager/serial_port_uart.o
HAL_UartEnterLowpower                             ./component/uart/lpuart_adapter.o
                                                  ./component/serial_manager/serial_port_uart.o
HAL_UartExitLowpower                              ./component/uart/lpuart_adapter.o
                                                  ./component/serial_manager/serial_port_uart.o
HAL_UartInit                                      ./component/uart/lpuart_adapter.o
                                                  ./component/serial_manager/serial_port_uart.o
HAL_UartReceiveBlocking                           ./component/uart/lpuart_adapter.o
                                                  ./component/serial_manager/serial_port_uart.o
HAL_UartSendBlocking                              ./component/uart/lpuart_adapter.o
                                                  ./component/serial_manager/serial_port_uart.o
HardFault_Handler                                 ./source/semihost_hardfault.o
                                                  ./startup/startup_mimxrt1021.o
Image_Start                                       ./source/hello_world.o
IntDefaultHandler                                 ./startup/startup_mimxrt1021.o
KPP_DriverIRQHandler                              ./startup/startup_mimxrt1021.o
KPP_IRQHandler                                    ./startup/startup_mimxrt1021.o
LIST_AddHead                                      ./component/lists/generic_list.o
LIST_AddPrevElement                               ./component/lists/generic_list.o
LIST_AddTail                                      ./component/lists/generic_list.o
LIST_GetAvailableSize                             ./component/lists/generic_list.o
LIST_GetHead                                      ./component/lists/generic_list.o
LIST_GetList                                      ./component/lists/generic_list.o
LIST_GetNext                                      ./component/lists/generic_list.o
LIST_GetPrev                                      ./component/lists/generic_list.o
LIST_GetSize                                      ./component/lists/generic_list.o
LIST_Init                                         ./component/lists/generic_list.o
LIST_RemoveElement                                ./component/lists/generic_list.o
LIST_RemoveHead                                   ./component/lists/generic_list.o
LPI2C1_DriverIRQHandler                           ./startup/startup_mimxrt1021.o
LPI2C1_IRQHandler                                 ./startup/startup_mimxrt1021.o
LPI2C2_DriverIRQHandler                           ./startup/startup_mimxrt1021.o
LPI2C2_IRQHandler                                 ./startup/startup_mimxrt1021.o
LPI2C3_DriverIRQHandler                           ./startup/startup_mimxrt1021.o
LPI2C3_IRQHandler                                 ./startup/startup_mimxrt1021.o
LPI2C4_DriverIRQHandler                           ./startup/startup_mimxrt1021.o
LPI2C4_IRQHandler                                 ./startup/startup_mimxrt1021.o
LPSPI1_DriverIRQHandler                           ./startup/startup_mimxrt1021.o
LPSPI1_IRQHandler                                 ./startup/startup_mimxrt1021.o
LPSPI2_DriverIRQHandler                           ./startup/startup_mimxrt1021.o
LPSPI2_IRQHandler                                 ./startup/startup_mimxrt1021.o
LPSPI3_DriverIRQHandler                           ./startup/startup_mimxrt1021.o
LPSPI3_IRQHandler                                 ./startup/startup_mimxrt1021.o
LPSPI4_DriverIRQHandler                           ./startup/startup_mimxrt1021.o
LPSPI4_IRQHandler                                 ./startup/startup_mimxrt1021.o
LPUART1_DriverIRQHandler                          ./drivers/fsl_lpuart.o
                                                  ./startup/startup_mimxrt1021.o
LPUART1_IRQHandler                                ./startup/startup_mimxrt1021.o
LPUART2_DriverIRQHandler                          ./drivers/fsl_lpuart.o
                                                  ./startup/startup_mimxrt1021.o
LPUART2_IRQHandler                                ./startup/startup_mimxrt1021.o
LPUART3_DriverIRQHandler                          ./drivers/fsl_lpuart.o
                                                  ./startup/startup_mimxrt1021.o
LPUART3_IRQHandler                                ./startup/startup_mimxrt1021.o
LPUART4_DriverIRQHandler                          ./drivers/fsl_lpuart.o
                                                  ./startup/startup_mimxrt1021.o
LPUART4_IRQHandler                                ./startup/startup_mimxrt1021.o
LPUART5_DriverIRQHandler                          ./drivers/fsl_lpuart.o
                                                  ./startup/startup_mimxrt1021.o
LPUART5_IRQHandler                                ./startup/startup_mimxrt1021.o
LPUART6_DriverIRQHandler                          ./drivers/fsl_lpuart.o
                                                  ./startup/startup_mimxrt1021.o
LPUART6_IRQHandler                                ./startup/startup_mimxrt1021.o
LPUART7_DriverIRQHandler                          ./drivers/fsl_lpuart.o
                                                  ./startup/startup_mimxrt1021.o
LPUART7_IRQHandler                                ./startup/startup_mimxrt1021.o
LPUART8_DriverIRQHandler                          ./drivers/fsl_lpuart.o
                                                  ./startup/startup_mimxrt1021.o
LPUART8_IRQHandler                                ./startup/startup_mimxrt1021.o
LPUART_ClearStatusFlags                           ./drivers/fsl_lpuart.o
LPUART_Deinit                                     ./drivers/fsl_lpuart.o
                                                  ./component/uart/lpuart_adapter.o
LPUART_DisableInterrupts                          ./drivers/fsl_lpuart.o
LPUART_EnableInterrupts                           ./drivers/fsl_lpuart.o
LPUART_GetDefaultConfig                           ./drivers/fsl_lpuart.o
                                                  ./component/uart/lpuart_adapter.o
LPUART_GetEnabledInterrupts                       ./drivers/fsl_lpuart.o
LPUART_GetInstance                                ./drivers/fsl_lpuart.o
LPUART_GetStatusFlags                             ./drivers/fsl_lpuart.o
LPUART_Init                                       ./drivers/fsl_lpuart.o
                                                  ./component/uart/lpuart_adapter.o
LPUART_ReadBlocking                               ./drivers/fsl_lpuart.o
                                                  ./component/uart/lpuart_adapter.o
LPUART_SetBaudRate                                ./drivers/fsl_lpuart.o
LPUART_TransferAbortReceive                       ./drivers/fsl_lpuart.o
LPUART_TransferAbortSend                          ./drivers/fsl_lpuart.o
LPUART_TransferCreateHandle                       ./drivers/fsl_lpuart.o
LPUART_TransferGetReceiveCount                    ./drivers/fsl_lpuart.o
LPUART_TransferGetRxRingBufferLength              ./drivers/fsl_lpuart.o
LPUART_TransferGetSendCount                       ./drivers/fsl_lpuart.o
LPUART_TransferHandleErrorIRQ                     ./drivers/fsl_lpuart.o
LPUART_TransferHandleIRQ                          ./drivers/fsl_lpuart.o
LPUART_TransferReceiveNonBlocking                 ./drivers/fsl_lpuart.o
LPUART_TransferSendNonBlocking                    ./drivers/fsl_lpuart.o
LPUART_TransferStartRingBuffer                    ./drivers/fsl_lpuart.o
LPUART_TransferStopRingBuffer                     ./drivers/fsl_lpuart.o
LPUART_WriteBlocking                              ./drivers/fsl_lpuart.o
                                                  ./component/uart/lpuart_adapter.o
MemManage_Handler                                 ./startup/startup_mimxrt1021.o
NMI_Handler                                       ./startup/startup_mimxrt1021.o
PIT_DriverIRQHandler                              ./startup/startup_mimxrt1021.o
PIT_IRQHandler                                    ./startup/startup_mimxrt1021.o
PMU_DriverIRQHandler                              ./startup/startup_mimxrt1021.o
PMU_IRQHandler                                    ./startup/startup_mimxrt1021.o
PWM1_0_DriverIRQHandler                           ./startup/startup_mimxrt1021.o
PWM1_0_IRQHandler                                 ./startup/startup_mimxrt1021.o
PWM1_1_DriverIRQHandler                           ./startup/startup_mimxrt1021.o
PWM1_1_IRQHandler                                 ./startup/startup_mimxrt1021.o
PWM1_2_DriverIRQHandler                           ./startup/startup_mimxrt1021.o
PWM1_2_IRQHandler                                 ./startup/startup_mimxrt1021.o
PWM1_3_DriverIRQHandler                           ./startup/startup_mimxrt1021.o
PWM1_3_IRQHandler                                 ./startup/startup_mimxrt1021.o
PWM1_FAULT_DriverIRQHandler                       ./startup/startup_mimxrt1021.o
PWM1_FAULT_IRQHandler                             ./startup/startup_mimxrt1021.o
PWM2_0_DriverIRQHandler                           ./startup/startup_mimxrt1021.o
PWM2_0_IRQHandler                                 ./startup/startup_mimxrt1021.o
PWM2_1_DriverIRQHandler                           ./startup/startup_mimxrt1021.o
PWM2_1_IRQHandler                                 ./startup/startup_mimxrt1021.o
PWM2_2_DriverIRQHandler                           ./startup/startup_mimxrt1021.o
PWM2_2_IRQHandler                                 ./startup/startup_mimxrt1021.o
PWM2_3_DriverIRQHandler                           ./startup/startup_mimxrt1021.o
PWM2_3_IRQHandler                                 ./startup/startup_mimxrt1021.o
PWM2_FAULT_DriverIRQHandler                       ./startup/startup_mimxrt1021.o
PWM2_FAULT_IRQHandler                             ./startup/startup_mimxrt1021.o
PendSV_Handler                                    ./startup/startup_mimxrt1021.o
RTWDOG_DriverIRQHandler                           ./startup/startup_mimxrt1021.o
RTWDOG_IRQHandler                                 ./startup/startup_mimxrt1021.o
Reserved102_DriverIRQHandler                      ./startup/startup_mimxrt1021.o
Reserved102_IRQHandler                            ./startup/startup_mimxrt1021.o
Reserved103_DriverIRQHandler                      ./startup/startup_mimxrt1021.o
Reserved103_IRQHandler                            ./startup/startup_mimxrt1021.o
Reserved107_DriverIRQHandler                      ./startup/startup_mimxrt1021.o
Reserved107_IRQHandler                            ./startup/startup_mimxrt1021.o
Reserved115_DriverIRQHandler                      ./startup/startup_mimxrt1021.o
Reserved115_IRQHandler                            ./startup/startup_mimxrt1021.o
Reserved123_DriverIRQHandler                      ./startup/startup_mimxrt1021.o
Reserved123_IRQHandler                            ./startup/startup_mimxrt1021.o
Reserved128_DriverIRQHandler                      ./startup/startup_mimxrt1021.o
Reserved128_IRQHandler                            ./startup/startup_mimxrt1021.o
Reserved143_DriverIRQHandler                      ./startup/startup_mimxrt1021.o
Reserved143_IRQHandler                            ./startup/startup_mimxrt1021.o
Reserved144_DriverIRQHandler                      ./startup/startup_mimxrt1021.o
Reserved144_IRQHandler                            ./startup/startup_mimxrt1021.o
Reserved147_DriverIRQHandler                      ./startup/startup_mimxrt1021.o
Reserved147_IRQHandler                            ./startup/startup_mimxrt1021.o
Reserved148_DriverIRQHandler                      ./startup/startup_mimxrt1021.o
Reserved148_IRQHandler                            ./startup/startup_mimxrt1021.o
Reserved151_DriverIRQHandler                      ./startup/startup_mimxrt1021.o
Reserved151_IRQHandler                            ./startup/startup_mimxrt1021.o
Reserved152_DriverIRQHandler                      ./startup/startup_mimxrt1021.o
Reserved152_IRQHandler                            ./startup/startup_mimxrt1021.o
Reserved56_DriverIRQHandler                       ./startup/startup_mimxrt1021.o
Reserved56_IRQHandler                             ./startup/startup_mimxrt1021.o
Reserved58_DriverIRQHandler                       ./startup/startup_mimxrt1021.o
Reserved58_IRQHandler                             ./startup/startup_mimxrt1021.o
Reserved59_DriverIRQHandler                       ./startup/startup_mimxrt1021.o
Reserved59_IRQHandler                             ./startup/startup_mimxrt1021.o
Reserved60_DriverIRQHandler                       ./startup/startup_mimxrt1021.o
Reserved60_IRQHandler                             ./startup/startup_mimxrt1021.o
Reserved68_DriverIRQHandler                       ./startup/startup_mimxrt1021.o
Reserved68_IRQHandler                             ./startup/startup_mimxrt1021.o
Reserved70_DriverIRQHandler                       ./startup/startup_mimxrt1021.o
Reserved70_IRQHandler                             ./startup/startup_mimxrt1021.o
Reserved78_DriverIRQHandler                       ./startup/startup_mimxrt1021.o
Reserved78_IRQHandler                             ./startup/startup_mimxrt1021.o
Reserved82_DriverIRQHandler                       ./startup/startup_mimxrt1021.o
Reserved82_IRQHandler                             ./startup/startup_mimxrt1021.o
Reserved86_DriverIRQHandler                       ./startup/startup_mimxrt1021.o
Reserved86_IRQHandler                             ./startup/startup_mimxrt1021.o
Reserved87_DriverIRQHandler                       ./startup/startup_mimxrt1021.o
Reserved87_IRQHandler                             ./startup/startup_mimxrt1021.o
ResetISR                                          ./startup/startup_mimxrt1021.o
SAI1_DriverIRQHandler                             ./startup/startup_mimxrt1021.o
SAI1_IRQHandler                                   ./startup/startup_mimxrt1021.o
SAI2_DriverIRQHandler                             ./startup/startup_mimxrt1021.o
SAI2_IRQHandler                                   ./startup/startup_mimxrt1021.o
SAI3_RX_DriverIRQHandler                          ./startup/startup_mimxrt1021.o
SAI3_RX_IRQHandler                                ./startup/startup_mimxrt1021.o
SAI3_TX_DriverIRQHandler                          ./startup/startup_mimxrt1021.o
SAI3_TX_IRQHandler                                ./startup/startup_mimxrt1021.o
SDK_DelayAtLeastUs                                ./drivers/fsl_common.o
SDK_Free                                          ./drivers/fsl_common.o
SDK_Malloc                                        ./drivers/fsl_common.o
SEMC_DriverIRQHandler                             ./startup/startup_mimxrt1021.o
SEMC_IRQHandler                                   ./startup/startup_mimxrt1021.o
SNVS_HP_WRAPPER_DriverIRQHandler                  ./startup/startup_mimxrt1021.o
SNVS_HP_WRAPPER_IRQHandler                        ./startup/startup_mimxrt1021.o
SNVS_HP_WRAPPER_TZ_DriverIRQHandler               ./startup/startup_mimxrt1021.o
SNVS_HP_WRAPPER_TZ_IRQHandler                     ./startup/startup_mimxrt1021.o
SNVS_LP_WRAPPER_DriverIRQHandler                  ./startup/startup_mimxrt1021.o
SNVS_LP_WRAPPER_IRQHandler                        ./startup/startup_mimxrt1021.o
SPDIF_DriverIRQHandler                            ./startup/startup_mimxrt1021.o
SPDIF_IRQHandler                                  ./startup/startup_mimxrt1021.o
SRC_DriverIRQHandler                              ./startup/startup_mimxrt1021.o
SRC_IRQHandler                                    ./startup/startup_mimxrt1021.o
SVC_Handler                                       ./startup/startup_mimxrt1021.o
SerialManager_CloseReadHandle                     ./component/serial_manager/serial_manager.o
                                                  ./utilities/fsl_debug_console.o
SerialManager_CloseWriteHandle                    ./component/serial_manager/serial_manager.o
                                                  ./utilities/fsl_debug_console.o
SerialManager_Deinit                              ./component/serial_manager/serial_manager.o
                                                  ./utilities/fsl_debug_console.o
SerialManager_EnterLowpower                       ./component/serial_manager/serial_manager.o
SerialManager_ExitLowpower                        ./component/serial_manager/serial_manager.o
SerialManager_Init                                ./component/serial_manager/serial_manager.o
                                                  ./utilities/fsl_debug_console.o
SerialManager_OpenReadHandle                      ./component/serial_manager/serial_manager.o
                                                  ./utilities/fsl_debug_console.o
SerialManager_OpenWriteHandle                     ./component/serial_manager/serial_manager.o
                                                  ./utilities/fsl_debug_console.o
SerialManager_ReadBlocking                        ./component/serial_manager/serial_manager.o
                                                  ./utilities/fsl_debug_console.o
SerialManager_WriteBlocking                       ./component/serial_manager/serial_manager.o
                                                  ./utilities/fsl_debug_console.o
Serial_UartDeinit                                 ./component/serial_manager/serial_port_uart.o
                                                  ./component/serial_manager/serial_manager.o
Serial_UartEnterLowpower                          ./component/serial_manager/serial_port_uart.o
                                                  ./component/serial_manager/serial_manager.o
Serial_UartExitLowpower                           ./component/serial_manager/serial_port_uart.o
                                                  ./component/serial_manager/serial_manager.o
Serial_UartInit                                   ./component/serial_manager/serial_port_uart.o
                                                  ./component/serial_manager/serial_manager.o
Serial_UartRead                                   ./component/serial_manager/serial_port_uart.o
                                                  ./component/serial_manager/serial_manager.o
Serial_UartWrite                                  ./component/serial_manager/serial_port_uart.o
                                                  ./component/serial_manager/serial_manager.o
StrFormatPrintf                                   ./utilities/fsl_str.o
                                                  ./utilities/fsl_debug_console.o
StrFormatScanf                                    ./utilities/fsl_str.o
                                                  ./utilities/fsl_debug_console.o
SysTick_Handler                                   ./startup/startup_mimxrt1021.o
SystemCoreClock                                   ./device/system_MIMXRT1021.o
                                                  ./board/clock_config.o
SystemCoreClockUpdate                             ./device/system_MIMXRT1021.o
SystemInit                                        ./device/system_MIMXRT1021.o
                                                  ./startup/startup_mimxrt1021.o
SystemInitHook                                    ./device/system_MIMXRT1021.o
TEMP_LOW_HIGH_DriverIRQHandler                    ./startup/startup_mimxrt1021.o
TEMP_LOW_HIGH_IRQHandler                          ./startup/startup_mimxrt1021.o
TEMP_PANIC_DriverIRQHandler                       ./startup/startup_mimxrt1021.o
TEMP_PANIC_IRQHandler                             ./startup/startup_mimxrt1021.o
TMR1_DriverIRQHandler                             ./startup/startup_mimxrt1021.o
TMR1_IRQHandler                                   ./startup/startup_mimxrt1021.o
TMR2_DriverIRQHandler                             ./startup/startup_mimxrt1021.o
TMR2_IRQHandler                                   ./startup/startup_mimxrt1021.o
TRNG_DriverIRQHandler                             ./startup/startup_mimxrt1021.o
TRNG_IRQHandler                                   ./startup/startup_mimxrt1021.o
USB_OTG1_DriverIRQHandler                         ./startup/startup_mimxrt1021.o
USB_OTG1_IRQHandler                               ./startup/startup_mimxrt1021.o
USB_PHY_DriverIRQHandler                          ./startup/startup_mimxrt1021.o
USB_PHY_IRQHandler                                ./startup/startup_mimxrt1021.o
USDHC1_DriverIRQHandler                           ./startup/startup_mimxrt1021.o
USDHC1_IRQHandler                                 ./startup/startup_mimxrt1021.o
USDHC2_DriverIRQHandler                           ./startup/startup_mimxrt1021.o
USDHC2_IRQHandler                                 ./startup/startup_mimxrt1021.o
UsageFault_Handler                                ./startup/startup_mimxrt1021.o
WDOG1_DriverIRQHandler                            ./startup/startup_mimxrt1021.o
WDOG1_IRQHandler                                  ./startup/startup_mimxrt1021.o
WDOG2_DriverIRQHandler                            ./startup/startup_mimxrt1021.o
WDOG2_IRQHandler                                  ./startup/startup_mimxrt1021.o
XBAR1_IRQ_0_1_DriverIRQHandler                    ./startup/startup_mimxrt1021.o
XBAR1_IRQ_0_1_IRQHandler                          ./startup/startup_mimxrt1021.o
XBAR1_IRQ_2_3_DriverIRQHandler                    ./startup/startup_mimxrt1021.o
XBAR1_IRQ_2_3_IRQHandler                          ./startup/startup_mimxrt1021.o
_Csys_alloc                                       c:/nxp/mcuxpressoide_11.1.1_3241/ide/plugins/com.nxp.mcuxpresso.tools.win32_11.1.0.202001081728/tools/bin/../lib/gcc/arm-none-eabi/8.3.1/../../../../arm-none-eabi/lib/thumb/v7e-m+dp/hard\libcr_c.a(alloc.o)
                                                  c:/nxp/mcuxpressoide_11.1.1_3241/ide/plugins/com.nxp.mcuxpresso.tools.win32_11.1.0.202001081728/tools/bin/../lib/gcc/arm-none-eabi/8.3.1/../../../../arm-none-eabi/lib/thumb/v7e-m+dp/hard\libcr_c.a(_deferredlazyseek.o)
                                                  c:/nxp/mcuxpressoide_11.1.1_3241/ide/plugins/com.nxp.mcuxpresso.tools.win32_11.1.0.202001081728/tools/bin/../lib/gcc/arm-none-eabi/8.3.1/../../../../arm-none-eabi/lib/thumb/v7e-m+dp/hard\libcr_c.a(__fillbuf.o)
_Csys_read_                                       c:/nxp/mcuxpressoide_11.1.1_3241/ide/plugins/com.nxp.mcuxpresso.tools.win32_11.1.0.202001081728/tools/bin/../lib/gcc/arm-none-eabi/8.3.1/../../../../arm-none-eabi/lib/thumb/v7e-m+dp/hard\libcr_c.a(__fillbuf.o)
_Cwritebuf                                        c:/nxp/mcuxpressoide_11.1.1_3241/ide/plugins/com.nxp.mcuxpresso.tools.win32_11.1.0.202001081728/tools/bin/../lib/gcc/arm-none-eabi/8.3.1/../../../../arm-none-eabi/lib/thumb/v7e-m+dp/hard\libcr_c.a(_writebuf.o)
                                                  c:/nxp/mcuxpressoide_11.1.1_3241/ide/plugins/com.nxp.mcuxpresso.tools.win32_11.1.0.202001081728/tools/bin/../lib/gcc/arm-none-eabi/8.3.1/../../../../arm-none-eabi/lib/thumb/v7e-m+dp/hard\libcr_c.a(_fflush.o)
                                                  c:/nxp/mcuxpressoide_11.1.1_3241/ide/plugins/com.nxp.mcuxpresso.tools.win32_11.1.0.202001081728/tools/bin/../lib/gcc/arm-none-eabi/8.3.1/../../../../arm-none-eabi/lib/thumb/v7e-m+dp/hard\libcr_c.a(_deferredlazyseek.o)
__Ciob                                            c:/nxp/mcuxpressoide_11.1.1_3241/ide/plugins/com.nxp.mcuxpresso.tools.win32_11.1.0.202001081728/tools/bin/../lib/gcc/arm-none-eabi/8.3.1/../../../../arm-none-eabi/lib/thumb/v7e-m+dp/hard\libcr_nohost_nf.a(__ciob.o)
                                                  c:/nxp/mcuxpressoide_11.1.1_3241/ide/plugins/com.nxp.mcuxpresso.tools.win32_11.1.0.202001081728/tools/bin/../lib/gcc/arm-none-eabi/8.3.1/../../../../arm-none-eabi/lib/thumb/v7e-m+dp/hard\libcr_c.a(fflush.o)
                                                  c:/nxp/mcuxpressoide_11.1.1_3241/ide/plugins/com.nxp.mcuxpresso.tools.win32_11.1.0.202001081728/tools/bin/../lib/gcc/arm-none-eabi/8.3.1/../../../../arm-none-eabi/lib/thumb/v7e-m+dp/hard\libcr_c.a(scanf.o)
                                                  c:/nxp/mcuxpressoide_11.1.1_3241/ide/plugins/com.nxp.mcuxpresso.tools.win32_11.1.0.202001081728/tools/bin/../lib/gcc/arm-none-eabi/8.3.1/../../../../arm-none-eabi/lib/thumb/v7e-m+dp/hard\libcr_c.a(initio.o)
__Vectors                                         ./startup/startup_mimxrt1021.o
                                                  ./xip/fsl_flexspi_nor_boot.o
__aeabi_idiv0                                     c:/nxp/mcuxpressoide_11.1.1_3241/ide/plugins/com.nxp.mcuxpresso.tools.win32_11.1.0.202001081728/tools/bin/../lib/gcc/arm-none-eabi/8.3.1/thumb/v7e-m+dp/hard\libcr_eabihelpers.a(division_idiv0.o)
                                                  c:/nxp/mcuxpressoide_11.1.1_3241/ide/plugins/com.nxp.mcuxpresso.tools.win32_11.1.0.202001081728/tools/bin/../lib/gcc/arm-none-eabi/8.3.1/thumb/v7e-m+dp/hard\libcr_eabihelpers.a(division_64.o)
__aeabi_ldivmod                                   c:/nxp/mcuxpressoide_11.1.1_3241/ide/plugins/com.nxp.mcuxpresso.tools.win32_11.1.0.202001081728/tools/bin/../lib/gcc/arm-none-eabi/8.3.1/thumb/v7e-m+dp/hard\libcr_eabihelpers.a(division_64.o)
__aeabi_lowlevel_memset                           c:/nxp/mcuxpressoide_11.1.1_3241/ide/plugins/com.nxp.mcuxpresso.tools.win32_11.1.0.202001081728/tools/bin/../lib/gcc/arm-none-eabi/8.3.1/thumb/v7e-m+dp/hard\libcr_eabihelpers.a(memcpy.o)
                                                  c:/nxp/mcuxpressoide_11.1.1_3241/ide/plugins/com.nxp.mcuxpresso.tools.win32_11.1.0.202001081728/tools/bin/../lib/gcc/arm-none-eabi/8.3.1/../../../../arm-none-eabi/lib/thumb/v7e-m+dp/hard\libcr_c.a(memset.o)
__aeabi_memclr                                    c:/nxp/mcuxpressoide_11.1.1_3241/ide/plugins/com.nxp.mcuxpresso.tools.win32_11.1.0.202001081728/tools/bin/../lib/gcc/arm-none-eabi/8.3.1/thumb/v7e-m+dp/hard\libcr_eabihelpers.a(memcpy.o)
__aeabi_memclr4                                   c:/nxp/mcuxpressoide_11.1.1_3241/ide/plugins/com.nxp.mcuxpresso.tools.win32_11.1.0.202001081728/tools/bin/../lib/gcc/arm-none-eabi/8.3.1/thumb/v7e-m+dp/hard\libcr_eabihelpers.a(memcpy.o)
__aeabi_memclr8                                   c:/nxp/mcuxpressoide_11.1.1_3241/ide/plugins/com.nxp.mcuxpresso.tools.win32_11.1.0.202001081728/tools/bin/../lib/gcc/arm-none-eabi/8.3.1/thumb/v7e-m+dp/hard\libcr_eabihelpers.a(memcpy.o)
__aeabi_memcpy                                    c:/nxp/mcuxpressoide_11.1.1_3241/ide/plugins/com.nxp.mcuxpresso.tools.win32_11.1.0.202001081728/tools/bin/../lib/gcc/arm-none-eabi/8.3.1/thumb/v7e-m+dp/hard\libcr_eabihelpers.a(memcpy.o)
                                                  c:/nxp/mcuxpressoide_11.1.1_3241/ide/plugins/com.nxp.mcuxpresso.tools.win32_11.1.0.202001081728/tools/bin/../lib/gcc/arm-none-eabi/8.3.1/../../../../arm-none-eabi/lib/thumb/v7e-m+dp/hard\libcr_c.a(memcpy.o)
__aeabi_memcpy4                                   c:/nxp/mcuxpressoide_11.1.1_3241/ide/plugins/com.nxp.mcuxpresso.tools.win32_11.1.0.202001081728/tools/bin/../lib/gcc/arm-none-eabi/8.3.1/thumb/v7e-m+dp/hard\libcr_eabihelpers.a(memcpy.o)
__aeabi_memcpy8                                   c:/nxp/mcuxpressoide_11.1.1_3241/ide/plugins/com.nxp.mcuxpresso.tools.win32_11.1.0.202001081728/tools/bin/../lib/gcc/arm-none-eabi/8.3.1/thumb/v7e-m+dp/hard\libcr_eabihelpers.a(memcpy.o)
__aeabi_memmove                                   c:/nxp/mcuxpressoide_11.1.1_3241/ide/plugins/com.nxp.mcuxpresso.tools.win32_11.1.0.202001081728/tools/bin/../lib/gcc/arm-none-eabi/8.3.1/thumb/v7e-m+dp/hard\libcr_eabihelpers.a(memcpy.o)
__aeabi_memmove4                                  c:/nxp/mcuxpressoide_11.1.1_3241/ide/plugins/com.nxp.mcuxpresso.tools.win32_11.1.0.202001081728/tools/bin/../lib/gcc/arm-none-eabi/8.3.1/thumb/v7e-m+dp/hard\libcr_eabihelpers.a(memcpy.o)
__aeabi_memmove8                                  c:/nxp/mcuxpressoide_11.1.1_3241/ide/plugins/com.nxp.mcuxpresso.tools.win32_11.1.0.202001081728/tools/bin/../lib/gcc/arm-none-eabi/8.3.1/thumb/v7e-m+dp/hard\libcr_eabihelpers.a(memcpy.o)
__aeabi_memset                                    c:/nxp/mcuxpressoide_11.1.1_3241/ide/plugins/com.nxp.mcuxpresso.tools.win32_11.1.0.202001081728/tools/bin/../lib/gcc/arm-none-eabi/8.3.1/thumb/v7e-m+dp/hard\libcr_eabihelpers.a(memcpy.o)
__aeabi_memset4                                   c:/nxp/mcuxpressoide_11.1.1_3241/ide/plugins/com.nxp.mcuxpresso.tools.win32_11.1.0.202001081728/tools/bin/../lib/gcc/arm-none-eabi/8.3.1/thumb/v7e-m+dp/hard\libcr_eabihelpers.a(memcpy.o)
__aeabi_memset8                                   c:/nxp/mcuxpressoide_11.1.1_3241/ide/plugins/com.nxp.mcuxpresso.tools.win32_11.1.0.202001081728/tools/bin/../lib/gcc/arm-none-eabi/8.3.1/thumb/v7e-m+dp/hard\libcr_eabihelpers.a(memcpy.o)
__aeabi_uldivmod                                  c:/nxp/mcuxpressoide_11.1.1_3241/ide/plugins/com.nxp.mcuxpresso.tools.win32_11.1.0.202001081728/tools/bin/../lib/gcc/arm-none-eabi/8.3.1/thumb/v7e-m+dp/hard\libcr_eabihelpers.a(division_64.o)
                                                  ./device/system_MIMXRT1021.o
                                                  ./drivers/fsl_common.o
__assertion_failed                                ./utilities/fsl_assert.o
                                                  ./board/pin_mux.o
                                                  ./board/clock_config.o
                                                  ./board/board.o
                                                  ./component/serial_manager/serial_port_uart.o
                                                  ./component/serial_manager/serial_manager.o
                                                  ./component/uart/lpuart_adapter.o
                                                  ./drivers/fsl_lpuart.o
                                                  ./drivers/fsl_gpio.o
                                                  ./drivers/fsl_common.o
                                                  ./drivers/fsl_clock.o
                                                  ./utilities/fsl_debug_console.o
__base_NCACHE_REGION                              ./board/board.o
__bhs_ldivmod1                                    c:/nxp/mcuxpressoide_11.1.1_3241/ide/plugins/com.nxp.mcuxpresso.tools.win32_11.1.0.202001081728/tools/bin/../lib/gcc/arm-none-eabi/8.3.1/thumb/v7e-m+dp/hard\libcr_eabihelpers.a(division_64.o)
__boot_hdr_start__                                ./xip/fsl_flexspi_nor_boot.o
__bss_section_table_end                           ./startup/startup_mimxrt1021.o
__check_heap_overflow                             c:/nxp/mcuxpressoide_11.1.1_3241/ide/plugins/com.nxp.mcuxpresso.tools.win32_11.1.0.202001081728/tools/bin/../lib/gcc/arm-none-eabi/8.3.1/../../../../arm-none-eabi/lib/thumb/v7e-m+dp/hard\libcr_c.a(_cr_check_heap.o)
                                                  c:/nxp/mcuxpressoide_11.1.1_3241/ide/plugins/com.nxp.mcuxpresso.tools.win32_11.1.0.202001081728/tools/bin/../lib/gcc/arm-none-eabi/8.3.1/../../../../arm-none-eabi/lib/thumb/v7e-m+dp/hard\libcr_c.a(_cr_sbrk.o)
__ctype                                           c:/nxp/mcuxpressoide_11.1.1_3241/ide/plugins/com.nxp.mcuxpresso.tools.win32_11.1.0.202001081728/tools/bin/../lib/gcc/arm-none-eabi/8.3.1/../../../../arm-none-eabi/lib/thumb/v7e-m+dp/hard\libcr_c.a(ctype.o)
                                                  c:/nxp/mcuxpressoide_11.1.1_3241/ide/plugins/com.nxp.mcuxpresso.tools.win32_11.1.0.202001081728/tools/bin/../lib/gcc/arm-none-eabi/8.3.1/../../../../arm-none-eabi/lib/thumb/v7e-m+dp/hard\libcr_c.a(scanf.o)
__data_section_table                              ./startup/startup_mimxrt1021.o
__data_section_table_end                          ./startup/startup_mimxrt1021.o
__end_of_heap                                     c:/nxp/mcuxpressoide_11.1.1_3241/ide/plugins/com.nxp.mcuxpresso.tools.win32_11.1.0.202001081728/tools/bin/../lib/gcc/arm-none-eabi/8.3.1/../../../../arm-none-eabi/lib/thumb/v7e-m+dp/hard\libcr_c.a(__init_alloc.o)
                                                  c:/nxp/mcuxpressoide_11.1.1_3241/ide/plugins/com.nxp.mcuxpresso.tools.win32_11.1.0.202001081728/tools/bin/../lib/gcc/arm-none-eabi/8.3.1/../../../../arm-none-eabi/lib/thumb/v7e-m+dp/hard\libcr_c.a(_cr_sbrk.o)
__exit                                            c:/nxp/mcuxpressoide_11.1.1_3241/ide/plugins/com.nxp.mcuxpresso.tools.win32_11.1.0.202001081728/tools/bin/../lib/gcc/arm-none-eabi/8.3.1/../../../../arm-none-eabi/lib/thumb/v7e-m+dp/hard\libcr_nohost_nf.a(__sys_appexit.o)
__filbuf                                          c:/nxp/mcuxpressoide_11.1.1_3241/ide/plugins/com.nxp.mcuxpresso.tools.win32_11.1.0.202001081728/tools/bin/../lib/gcc/arm-none-eabi/8.3.1/../../../../arm-none-eabi/lib/thumb/v7e-m+dp/hard\libcr_c.a(__fillbuf.o)
                                                  c:/nxp/mcuxpressoide_11.1.1_3241/ide/plugins/com.nxp.mcuxpresso.tools.win32_11.1.0.202001081728/tools/bin/../lib/gcc/arm-none-eabi/8.3.1/../../../../arm-none-eabi/lib/thumb/v7e-m+dp/hard\libcr_c.a(scanf.o)
__flsbuf                                          c:/nxp/mcuxpressoide_11.1.1_3241/ide/plugins/com.nxp.mcuxpresso.tools.win32_11.1.0.202001081728/tools/bin/../lib/gcc/arm-none-eabi/8.3.1/../../../../arm-none-eabi/lib/thumb/v7e-m+dp/hard\libcr_c.a(_deferredlazyseek.o)
__heaps                                           c:/nxp/mcuxpressoide_11.1.1_3241/ide/plugins/com.nxp.mcuxpresso.tools.win32_11.1.0.202001081728/tools/bin/../lib/gcc/arm-none-eabi/8.3.1/../../../../arm-none-eabi/lib/thumb/v7e-m+dp/hard\libcr_c.a(__init_alloc.o)
                                                  c:/nxp/mcuxpressoide_11.1.1_3241/ide/plugins/com.nxp.mcuxpresso.tools.win32_11.1.0.202001081728/tools/bin/../lib/gcc/arm-none-eabi/8.3.1/../../../../arm-none-eabi/lib/thumb/v7e-m+dp/hard\libcr_c.a(alloc.o)
__main                                            c:/nxp/mcuxpressoide_11.1.1_3241/ide/plugins/com.nxp.mcuxpresso.tools.win32_11.1.0.202001081728/tools/bin/../lib/gcc/arm-none-eabi/8.3.1/../../../../arm-none-eabi/lib/thumb/v7e-m+dp/hard\libcr_nohost_nf.a(_cr__main.o)
                                                  ./startup/startup_mimxrt1021.o
__num_Ciob_streams                                c:/nxp/mcuxpressoide_11.1.1_3241/ide/plugins/com.nxp.mcuxpresso.tools.win32_11.1.0.202001081728/tools/bin/../lib/gcc/arm-none-eabi/8.3.1/../../../../arm-none-eabi/lib/thumb/v7e-m+dp/hard\libcr_nohost_nf.a(__ciob.o)
                                                  c:/nxp/mcuxpressoide_11.1.1_3241/ide/plugins/com.nxp.mcuxpresso.tools.win32_11.1.0.202001081728/tools/bin/../lib/gcc/arm-none-eabi/8.3.1/../../../../arm-none-eabi/lib/thumb/v7e-m+dp/hard\libcr_c.a(fflush.o)
                                                  c:/nxp/mcuxpressoide_11.1.1_3241/ide/plugins/com.nxp.mcuxpresso.tools.win32_11.1.0.202001081728/tools/bin/../lib/gcc/arm-none-eabi/8.3.1/../../../../arm-none-eabi/lib/thumb/v7e-m+dp/hard\libcr_c.a(initio.o)
__readc                                           c:/nxp/mcuxpressoide_11.1.1_3241/ide/plugins/com.nxp.mcuxpresso.tools.win32_11.1.0.202001081728/tools/bin/../lib/gcc/arm-none-eabi/8.3.1/../../../../arm-none-eabi/lib/thumb/v7e-m+dp/hard\libcr_nohost_nf.a(__sys_readc.o)
__sys_appexit                                     c:/nxp/mcuxpressoide_11.1.1_3241/ide/plugins/com.nxp.mcuxpresso.tools.win32_11.1.0.202001081728/tools/bin/../lib/gcc/arm-none-eabi/8.3.1/../../../../arm-none-eabi/lib/thumb/v7e-m+dp/hard\libcr_nohost_nf.a(__sys_appexit.o)
                                                  c:/nxp/mcuxpressoide_11.1.1_3241/ide/plugins/com.nxp.mcuxpresso.tools.win32_11.1.0.202001081728/tools/bin/../lib/gcc/arm-none-eabi/8.3.1/../../../../arm-none-eabi/lib/thumb/v7e-m+dp/hard\libcr_c.a(alloc.o)
__sys_close                                       c:/nxp/mcuxpressoide_11.1.1_3241/ide/plugins/com.nxp.mcuxpresso.tools.win32_11.1.0.202001081728/tools/bin/../lib/gcc/arm-none-eabi/8.3.1/../../../../arm-none-eabi/lib/thumb/v7e-m+dp/hard\libcr_nohost_nf.a(__sys_close.o)
                                                  c:/nxp/mcuxpressoide_11.1.1_3241/ide/plugins/com.nxp.mcuxpresso.tools.win32_11.1.0.202001081728/tools/bin/../lib/gcc/arm-none-eabi/8.3.1/../../../../arm-none-eabi/lib/thumb/v7e-m+dp/hard\libcr_c.a(fclose.o)
__sys_flen                                        c:/nxp/mcuxpressoide_11.1.1_3241/ide/plugins/com.nxp.mcuxpresso.tools.win32_11.1.0.202001081728/tools/bin/../lib/gcc/arm-none-eabi/8.3.1/../../../../arm-none-eabi/lib/thumb/v7e-m+dp/hard\libcr_nohost_nf.a(__sys_flen.o)
                                                  c:/nxp/mcuxpressoide_11.1.1_3241/ide/plugins/com.nxp.mcuxpresso.tools.win32_11.1.0.202001081728/tools/bin/../lib/gcc/arm-none-eabi/8.3.1/../../../../arm-none-eabi/lib/thumb/v7e-m+dp/hard\libcr_c.a(fseek.o)
                                                  c:/nxp/mcuxpressoide_11.1.1_3241/ide/plugins/com.nxp.mcuxpresso.tools.win32_11.1.0.202001081728/tools/bin/../lib/gcc/arm-none-eabi/8.3.1/../../../../arm-none-eabi/lib/thumb/v7e-m+dp/hard\libcr_c.a(_writebuf.o)
__sys_istty                                       c:/nxp/mcuxpressoide_11.1.1_3241/ide/plugins/com.nxp.mcuxpresso.tools.win32_11.1.0.202001081728/tools/bin/../lib/gcc/arm-none-eabi/8.3.1/../../../../arm-none-eabi/lib/thumb/v7e-m+dp/hard\libcr_nohost_nf.a(__sys_istty.o)
                                                  c:/nxp/mcuxpressoide_11.1.1_3241/ide/plugins/com.nxp.mcuxpresso.tools.win32_11.1.0.202001081728/tools/bin/../lib/gcc/arm-none-eabi/8.3.1/../../../../arm-none-eabi/lib/thumb/v7e-m+dp/hard\libcr_c.a(fseek.o)
                                                  c:/nxp/mcuxpressoide_11.1.1_3241/ide/plugins/com.nxp.mcuxpresso.tools.win32_11.1.0.202001081728/tools/bin/../lib/gcc/arm-none-eabi/8.3.1/../../../../arm-none-eabi/lib/thumb/v7e-m+dp/hard\libcr_c.a(_deferredlazyseek.o)
__sys_read                                        c:/nxp/mcuxpressoide_11.1.1_3241/ide/plugins/com.nxp.mcuxpresso.tools.win32_11.1.0.202001081728/tools/bin/../lib/gcc/arm-none-eabi/8.3.1/../../../../arm-none-eabi/lib/thumb/v7e-m+dp/hard\libcr_nohost_nf.a(__sys_read.o)
                                                  c:/nxp/mcuxpressoide_11.1.1_3241/ide/plugins/com.nxp.mcuxpresso.tools.win32_11.1.0.202001081728/tools/bin/../lib/gcc/arm-none-eabi/8.3.1/../../../../arm-none-eabi/lib/thumb/v7e-m+dp/hard\libcr_c.a(__fillbuf.o)
__sys_readc                                       c:/nxp/mcuxpressoide_11.1.1_3241/ide/plugins/com.nxp.mcuxpresso.tools.win32_11.1.0.202001081728/tools/bin/../lib/gcc/arm-none-eabi/8.3.1/../../../../arm-none-eabi/lib/thumb/v7e-m+dp/hard\libcr_nohost_nf.a(__sys_readc.o)
                                                  c:/nxp/mcuxpressoide_11.1.1_3241/ide/plugins/com.nxp.mcuxpresso.tools.win32_11.1.0.202001081728/tools/bin/../lib/gcc/arm-none-eabi/8.3.1/../../../../arm-none-eabi/lib/thumb/v7e-m+dp/hard\libcr_c.a(__fillbuf.o)
__sys_remove                                      c:/nxp/mcuxpressoide_11.1.1_3241/ide/plugins/com.nxp.mcuxpresso.tools.win32_11.1.0.202001081728/tools/bin/../lib/gcc/arm-none-eabi/8.3.1/../../../../arm-none-eabi/lib/thumb/v7e-m+dp/hard\libcr_nohost_nf.a(__sys_remove.o)
                                                  c:/nxp/mcuxpressoide_11.1.1_3241/ide/plugins/com.nxp.mcuxpresso.tools.win32_11.1.0.202001081728/tools/bin/../lib/gcc/arm-none-eabi/8.3.1/../../../../arm-none-eabi/lib/thumb/v7e-m+dp/hard\libcr_c.a(remove.o)
__sys_rename                                      c:/nxp/mcuxpressoide_11.1.1_3241/ide/plugins/com.nxp.mcuxpresso.tools.win32_11.1.0.202001081728/tools/bin/../lib/gcc/arm-none-eabi/8.3.1/../../../../arm-none-eabi/lib/thumb/v7e-m+dp/hard\libcr_nohost_nf.a(__sys_rename.o)
                                                  c:/nxp/mcuxpressoide_11.1.1_3241/ide/plugins/com.nxp.mcuxpresso.tools.win32_11.1.0.202001081728/tools/bin/../lib/gcc/arm-none-eabi/8.3.1/../../../../arm-none-eabi/lib/thumb/v7e-m+dp/hard\libcr_c.a(remove.o)
__sys_seek                                        c:/nxp/mcuxpressoide_11.1.1_3241/ide/plugins/com.nxp.mcuxpresso.tools.win32_11.1.0.202001081728/tools/bin/../lib/gcc/arm-none-eabi/8.3.1/../../../../arm-none-eabi/lib/thumb/v7e-m+dp/hard\libcr_nohost_nf.a(__sys_seek.o)
                                                  c:/nxp/mcuxpressoide_11.1.1_3241/ide/plugins/com.nxp.mcuxpresso.tools.win32_11.1.0.202001081728/tools/bin/../lib/gcc/arm-none-eabi/8.3.1/../../../../arm-none-eabi/lib/thumb/v7e-m+dp/hard\libcr_c.a(_writebuf.o)
                                                  c:/nxp/mcuxpressoide_11.1.1_3241/ide/plugins/com.nxp.mcuxpresso.tools.win32_11.1.0.202001081728/tools/bin/../lib/gcc/arm-none-eabi/8.3.1/../../../../arm-none-eabi/lib/thumb/v7e-m+dp/hard\libcr_c.a(__fillbuf.o)
__sys_tmpnam                                      c:/nxp/mcuxpressoide_11.1.1_3241/ide/plugins/com.nxp.mcuxpresso.tools.win32_11.1.0.202001081728/tools/bin/../lib/gcc/arm-none-eabi/8.3.1/../../../../arm-none-eabi/lib/thumb/v7e-m+dp/hard\libcr_nohost_nf.a(__sys_tmpnam.o)
                                                  c:/nxp/mcuxpressoide_11.1.1_3241/ide/plugins/com.nxp.mcuxpresso.tools.win32_11.1.0.202001081728/tools/bin/../lib/gcc/arm-none-eabi/8.3.1/../../../../arm-none-eabi/lib/thumb/v7e-m+dp/hard\libcr_c.a(fclose.o)
__sys_write                                       c:/nxp/mcuxpressoide_11.1.1_3241/ide/plugins/com.nxp.mcuxpresso.tools.win32_11.1.0.202001081728/tools/bin/../lib/gcc/arm-none-eabi/8.3.1/../../../../arm-none-eabi/lib/thumb/v7e-m+dp/hard\libcr_nohost_nf.a(__sys_write.o)
                                                  c:/nxp/mcuxpressoide_11.1.1_3241/ide/plugins/com.nxp.mcuxpresso.tools.win32_11.1.0.202001081728/tools/bin/../lib/gcc/arm-none-eabi/8.3.1/../../../../arm-none-eabi/lib/thumb/v7e-m+dp/hard\libcr_c.a(_writebuf.o)
                                                  c:/nxp/mcuxpressoide_11.1.1_3241/ide/plugins/com.nxp.mcuxpresso.tools.win32_11.1.0.202001081728/tools/bin/../lib/gcc/arm-none-eabi/8.3.1/../../../../arm-none-eabi/lib/thumb/v7e-m+dp/hard\libcr_c.a(alloc.o)
__top_NCACHE_REGION                               ./board/board.o
_deferredlazyseek                                 c:/nxp/mcuxpressoide_11.1.1_3241/ide/plugins/com.nxp.mcuxpresso.tools.win32_11.1.0.202001081728/tools/bin/../lib/gcc/arm-none-eabi/8.3.1/../../../../arm-none-eabi/lib/thumb/v7e-m+dp/hard\libcr_c.a(_deferredlazyseek.o)
                                                  c:/nxp/mcuxpressoide_11.1.1_3241/ide/plugins/com.nxp.mcuxpresso.tools.win32_11.1.0.202001081728/tools/bin/../lib/gcc/arm-none-eabi/8.3.1/../../../../arm-none-eabi/lib/thumb/v7e-m+dp/hard\libcr_c.a(_do_fflush.o)
                                                  c:/nxp/mcuxpressoide_11.1.1_3241/ide/plugins/com.nxp.mcuxpresso.tools.win32_11.1.0.202001081728/tools/bin/../lib/gcc/arm-none-eabi/8.3.1/../../../../arm-none-eabi/lib/thumb/v7e-m+dp/hard\libcr_c.a(__fillbuf.o)
_do_fflush                                        c:/nxp/mcuxpressoide_11.1.1_3241/ide/plugins/com.nxp.mcuxpresso.tools.win32_11.1.0.202001081728/tools/bin/../lib/gcc/arm-none-eabi/8.3.1/../../../../arm-none-eabi/lib/thumb/v7e-m+dp/hard\libcr_c.a(_do_fflush.o)
                                                  c:/nxp/mcuxpressoide_11.1.1_3241/ide/plugins/com.nxp.mcuxpresso.tools.win32_11.1.0.202001081728/tools/bin/../lib/gcc/arm-none-eabi/8.3.1/../../../../arm-none-eabi/lib/thumb/v7e-m+dp/hard\libcr_c.a(fflush.o)
_fdopen                                           c:/nxp/mcuxpressoide_11.1.1_3241/ide/plugins/com.nxp.mcuxpresso.tools.win32_11.1.0.202001081728/tools/bin/../lib/gcc/arm-none-eabi/8.3.1/../../../../arm-none-eabi/lib/thumb/v7e-m+dp/hard\libcr_c.a(_fdopen.o)
                                                  c:/nxp/mcuxpressoide_11.1.1_3241/ide/plugins/com.nxp.mcuxpresso.tools.win32_11.1.0.202001081728/tools/bin/../lib/gcc/arm-none-eabi/8.3.1/../../../../arm-none-eabi/lib/thumb/v7e-m+dp/hard\libcr_c.a(initio.o)
_fflush                                           c:/nxp/mcuxpressoide_11.1.1_3241/ide/plugins/com.nxp.mcuxpresso.tools.win32_11.1.0.202001081728/tools/bin/../lib/gcc/arm-none-eabi/8.3.1/../../../../arm-none-eabi/lib/thumb/v7e-m+dp/hard\libcr_c.a(_fflush.o)
                                                  c:/nxp/mcuxpressoide_11.1.1_3241/ide/plugins/com.nxp.mcuxpresso.tools.win32_11.1.0.202001081728/tools/bin/../lib/gcc/arm-none-eabi/8.3.1/../../../../arm-none-eabi/lib/thumb/v7e-m+dp/hard\libcr_c.a(_do_fflush.o)
                                                  c:/nxp/mcuxpressoide_11.1.1_3241/ide/plugins/com.nxp.mcuxpresso.tools.win32_11.1.0.202001081728/tools/bin/../lib/gcc/arm-none-eabi/8.3.1/../../../../arm-none-eabi/lib/thumb/v7e-m+dp/hard\libcr_c.a(_deferredlazyseek.o)
                                                  c:/nxp/mcuxpressoide_11.1.1_3241/ide/plugins/com.nxp.mcuxpresso.tools.win32_11.1.0.202001081728/tools/bin/../lib/gcc/arm-none-eabi/8.3.1/../../../../arm-none-eabi/lib/thumb/v7e-m+dp/hard\libcr_c.a(__fillbuf.o)
_fillb2                                           c:/nxp/mcuxpressoide_11.1.1_3241/ide/plugins/com.nxp.mcuxpresso.tools.win32_11.1.0.202001081728/tools/bin/../lib/gcc/arm-none-eabi/8.3.1/../../../../arm-none-eabi/lib/thumb/v7e-m+dp/hard\libcr_c.a(__fillbuf.o)
_frexpl                                           c:/nxp/mcuxpressoide_11.1.1_3241/ide/plugins/com.nxp.mcuxpresso.tools.win32_11.1.0.202001081728/tools/bin/../lib/gcc/arm-none-eabi/8.3.1/../../../../arm-none-eabi/lib/thumb/v7e-m+dp/hard\libcr_c.a(_frexpl.o)
                                                  c:/nxp/mcuxpressoide_11.1.1_3241/ide/plugins/com.nxp.mcuxpresso.tools.win32_11.1.0.202001081728/tools/bin/../lib/gcc/arm-none-eabi/8.3.1/../../../../arm-none-eabi/lib/thumb/v7e-m+dp/hard\libcr_c.a(scanf.o)
_init_alloc                                       c:/nxp/mcuxpressoide_11.1.1_3241/ide/plugins/com.nxp.mcuxpresso.tools.win32_11.1.0.202001081728/tools/bin/../lib/gcc/arm-none-eabi/8.3.1/../../../../arm-none-eabi/lib/thumb/v7e-m+dp/hard\libcr_c.a(__init_alloc.o)
_initio                                           c:/nxp/mcuxpressoide_11.1.1_3241/ide/plugins/com.nxp.mcuxpresso.tools.win32_11.1.0.202001081728/tools/bin/../lib/gcc/arm-none-eabi/8.3.1/../../../../arm-none-eabi/lib/thumb/v7e-m+dp/hard\libcr_c.a(initio.o)
                                                  c:/nxp/mcuxpressoide_11.1.1_3241/ide/plugins/com.nxp.mcuxpresso.tools.win32_11.1.0.202001081728/tools/bin/../lib/gcc/arm-none-eabi/8.3.1/../../../../arm-none-eabi/lib/thumb/v7e-m+dp/hard\libcr_nohost_nf.a(_cr__main.o)
_ldexpl                                           c:/nxp/mcuxpressoide_11.1.1_3241/ide/plugins/com.nxp.mcuxpresso.tools.win32_11.1.0.202001081728/tools/bin/../lib/gcc/arm-none-eabi/8.3.1/../../../../arm-none-eabi/lib/thumb/v7e-m+dp/hard\libcr_c.a(_ldexpl.o)
                                                  c:/nxp/mcuxpressoide_11.1.1_3241/ide/plugins/com.nxp.mcuxpresso.tools.win32_11.1.0.202001081728/tools/bin/../lib/gcc/arm-none-eabi/8.3.1/../../../../arm-none-eabi/lib/thumb/v7e-m+dp/hard\libcr_c.a(scanf.o)
_ncc_vfscanf                                      c:/nxp/mcuxpressoide_11.1.1_3241/ide/plugins/com.nxp.mcuxpresso.tools.win32_11.1.0.202001081728/tools/bin/../lib/gcc/arm-none-eabi/8.3.1/../../../../arm-none-eabi/lib/thumb/v7e-m+dp/hard\libcr_c.a(scanf.o)
_pvHeapLimit                                      c:/nxp/mcuxpressoide_11.1.1_3241/ide/plugins/com.nxp.mcuxpresso.tools.win32_11.1.0.202001081728/tools/bin/../lib/gcc/arm-none-eabi/8.3.1/../../../../arm-none-eabi/lib/thumb/v7e-m+dp/hard\libcr_c.a(_cr_check_heap.o)
_pvHeapStart                                      c:/nxp/mcuxpressoide_11.1.1_3241/ide/plugins/com.nxp.mcuxpresso.tools.win32_11.1.0.202001081728/tools/bin/../lib/gcc/arm-none-eabi/8.3.1/../../../../arm-none-eabi/lib/thumb/v7e-m+dp/hard\libcr_c.a(_cr_sbrk.o)
_sbrk                                             c:/nxp/mcuxpressoide_11.1.1_3241/ide/plugins/com.nxp.mcuxpresso.tools.win32_11.1.0.202001081728/tools/bin/../lib/gcc/arm-none-eabi/8.3.1/../../../../arm-none-eabi/lib/thumb/v7e-m+dp/hard\libcr_c.a(_cr_sbrk.o)
                                                  c:/nxp/mcuxpressoide_11.1.1_3241/ide/plugins/com.nxp.mcuxpresso.tools.win32_11.1.0.202001081728/tools/bin/../lib/gcc/arm-none-eabi/8.3.1/../../../../arm-none-eabi/lib/thumb/v7e-m+dp/hard\libcr_c.a(alloc.o)
_terminateio                                      c:/nxp/mcuxpressoide_11.1.1_3241/ide/plugins/com.nxp.mcuxpresso.tools.win32_11.1.0.202001081728/tools/bin/../lib/gcc/arm-none-eabi/8.3.1/../../../../arm-none-eabi/lib/thumb/v7e-m+dp/hard\libcr_c.a(initio.o)
_vStackTop                                        ./startup/startup_mimxrt1021.o
atof                                              c:/nxp/mcuxpressoide_11.1.1_3241/ide/plugins/com.nxp.mcuxpresso.tools.win32_11.1.0.202001081728/tools/bin/../lib/gcc/arm-none-eabi/8.3.1/../../../../arm-none-eabi/lib/thumb/v7e-m+dp/hard\libcr_c.a(scanf.o)
atoi                                              c:/nxp/mcuxpressoide_11.1.1_3241/ide/plugins/com.nxp.mcuxpresso.tools.win32_11.1.0.202001081728/tools/bin/../lib/gcc/arm-none-eabi/8.3.1/../../../../arm-none-eabi/lib/thumb/v7e-m+dp/hard\libcr_c.a(scanf.o)
atol                                              c:/nxp/mcuxpressoide_11.1.1_3241/ide/plugins/com.nxp.mcuxpresso.tools.win32_11.1.0.202001081728/tools/bin/../lib/gcc/arm-none-eabi/8.3.1/../../../../arm-none-eabi/lib/thumb/v7e-m+dp/hard\libcr_c.a(scanf.o)
boot_data                                         ./xip/fsl_flexspi_nor_boot.o
bss_init                                          ./startup/startup_mimxrt1021.o
calloc                                            c:/nxp/mcuxpressoide_11.1.1_3241/ide/plugins/com.nxp.mcuxpresso.tools.win32_11.1.0.202001081728/tools/bin/../lib/gcc/arm-none-eabi/8.3.1/../../../../arm-none-eabi/lib/thumb/v7e-m+dp/hard\libcr_c.a(alloc.o)
data_init                                         ./startup/startup_mimxrt1021.o
dcd_data                                          ./board/dcd.o
                                                  ./xip/fsl_flexspi_nor_boot.o
delay_ms                                          ./source/hello_world.o
enetPllConfig_BOARD_BootClockRUN                  ./board/clock_config.o
errno                                             c:/nxp/mcuxpressoide_11.1.1_3241/ide/plugins/com.nxp.mcuxpresso.tools.win32_11.1.0.202001081728/tools/bin/../lib/gcc/arm-none-eabi/8.3.1/../../../../arm-none-eabi/lib/thumb/v7e-m+dp/hard\libcr_c.a(errno.o)
                                                  c:/nxp/mcuxpressoide_11.1.1_3241/ide/plugins/com.nxp.mcuxpresso.tools.win32_11.1.0.202001081728/tools/bin/../lib/gcc/arm-none-eabi/8.3.1/../../../../arm-none-eabi/lib/thumb/v7e-m+dp/hard\libcr_c.a(ftell.o)
                                                  c:/nxp/mcuxpressoide_11.1.1_3241/ide/plugins/com.nxp.mcuxpresso.tools.win32_11.1.0.202001081728/tools/bin/../lib/gcc/arm-none-eabi/8.3.1/../../../../arm-none-eabi/lib/thumb/v7e-m+dp/hard\libcr_c.a(_ldexpl.o)
                                                  c:/nxp/mcuxpressoide_11.1.1_3241/ide/plugins/com.nxp.mcuxpresso.tools.win32_11.1.0.202001081728/tools/bin/../lib/gcc/arm-none-eabi/8.3.1/../../../../arm-none-eabi/lib/thumb/v7e-m+dp/hard\libcr_c.a(_cr_sbrk.o)
                                                  c:/nxp/mcuxpressoide_11.1.1_3241/ide/plugins/com.nxp.mcuxpresso.tools.win32_11.1.0.202001081728/tools/bin/../lib/gcc/arm-none-eabi/8.3.1/../../../../arm-none-eabi/lib/thumb/v7e-m+dp/hard\libcr_c.a(scanf.o)
fclose                                            c:/nxp/mcuxpressoide_11.1.1_3241/ide/plugins/com.nxp.mcuxpresso.tools.win32_11.1.0.202001081728/tools/bin/../lib/gcc/arm-none-eabi/8.3.1/../../../../arm-none-eabi/lib/thumb/v7e-m+dp/hard\libcr_c.a(fclose.o)
                                                  c:/nxp/mcuxpressoide_11.1.1_3241/ide/plugins/com.nxp.mcuxpresso.tools.win32_11.1.0.202001081728/tools/bin/../lib/gcc/arm-none-eabi/8.3.1/../../../../arm-none-eabi/lib/thumb/v7e-m+dp/hard\libcr_c.a(_fdopen.o)
                                                  c:/nxp/mcuxpressoide_11.1.1_3241/ide/plugins/com.nxp.mcuxpresso.tools.win32_11.1.0.202001081728/tools/bin/../lib/gcc/arm-none-eabi/8.3.1/../../../../arm-none-eabi/lib/thumb/v7e-m+dp/hard\libcr_c.a(initio.o)
fflush                                            c:/nxp/mcuxpressoide_11.1.1_3241/ide/plugins/com.nxp.mcuxpresso.tools.win32_11.1.0.202001081728/tools/bin/../lib/gcc/arm-none-eabi/8.3.1/../../../../arm-none-eabi/lib/thumb/v7e-m+dp/hard\libcr_c.a(fflush.o)
                                                  c:/nxp/mcuxpressoide_11.1.1_3241/ide/plugins/com.nxp.mcuxpresso.tools.win32_11.1.0.202001081728/tools/bin/../lib/gcc/arm-none-eabi/8.3.1/../../../../arm-none-eabi/lib/thumb/v7e-m+dp/hard\libcr_c.a(fclose.o)
free                                              c:/nxp/mcuxpressoide_11.1.1_3241/ide/plugins/com.nxp.mcuxpresso.tools.win32_11.1.0.202001081728/tools/bin/../lib/gcc/arm-none-eabi/8.3.1/../../../../arm-none-eabi/lib/thumb/v7e-m+dp/hard\libcr_c.a(alloc.o)
                                                  c:/nxp/mcuxpressoide_11.1.1_3241/ide/plugins/com.nxp.mcuxpresso.tools.win32_11.1.0.202001081728/tools/bin/../lib/gcc/arm-none-eabi/8.3.1/../../../../arm-none-eabi/lib/thumb/v7e-m+dp/hard\libcr_c.a(fclose.o)
                                                  ./drivers/fsl_common.o
fscanf                                            c:/nxp/mcuxpressoide_11.1.1_3241/ide/plugins/com.nxp.mcuxpresso.tools.win32_11.1.0.202001081728/tools/bin/../lib/gcc/arm-none-eabi/8.3.1/../../../../arm-none-eabi/lib/thumb/v7e-m+dp/hard\libcr_c.a(scanf.o)
fseek                                             c:/nxp/mcuxpressoide_11.1.1_3241/ide/plugins/com.nxp.mcuxpresso.tools.win32_11.1.0.202001081728/tools/bin/../lib/gcc/arm-none-eabi/8.3.1/../../../../arm-none-eabi/lib/thumb/v7e-m+dp/hard\libcr_c.a(fseek.o)
                                                  c:/nxp/mcuxpressoide_11.1.1_3241/ide/plugins/com.nxp.mcuxpresso.tools.win32_11.1.0.202001081728/tools/bin/../lib/gcc/arm-none-eabi/8.3.1/../../../../arm-none-eabi/lib/thumb/v7e-m+dp/hard\libcr_c.a(_do_fflush.o)
                                                  c:/nxp/mcuxpressoide_11.1.1_3241/ide/plugins/com.nxp.mcuxpresso.tools.win32_11.1.0.202001081728/tools/bin/../lib/gcc/arm-none-eabi/8.3.1/../../../../arm-none-eabi/lib/thumb/v7e-m+dp/hard\libcr_c.a(_fdopen.o)
                                                  c:/nxp/mcuxpressoide_11.1.1_3241/ide/plugins/com.nxp.mcuxpresso.tools.win32_11.1.0.202001081728/tools/bin/../lib/gcc/arm-none-eabi/8.3.1/../../../../arm-none-eabi/lib/thumb/v7e-m+dp/hard\libcr_c.a(_deferredlazyseek.o)
ftell                                             c:/nxp/mcuxpressoide_11.1.1_3241/ide/plugins/com.nxp.mcuxpresso.tools.win32_11.1.0.202001081728/tools/bin/../lib/gcc/arm-none-eabi/8.3.1/../../../../arm-none-eabi/lib/thumb/v7e-m+dp/hard\libcr_c.a(ftell.o)
                                                  c:/nxp/mcuxpressoide_11.1.1_3241/ide/plugins/com.nxp.mcuxpresso.tools.win32_11.1.0.202001081728/tools/bin/../lib/gcc/arm-none-eabi/8.3.1/../../../../arm-none-eabi/lib/thumb/v7e-m+dp/hard\libcr_c.a(fseek.o)
g_pfnVectors                                      ./startup/startup_mimxrt1021.o
                                                  ./device/system_MIMXRT1021.o
g_rtcXtalFreq                                     ./drivers/fsl_clock.o
                                                  ./board/clock_config.o
g_serialHandle                                    ./utilities/fsl_debug_console.o
g_xtalFreq                                        ./drivers/fsl_clock.o
                                                  ./board/clock_config.o
                                                  ./board/board.o
iap_config                                        ./source/hello_world.o
image_vector_table                                ./xip/fsl_flexspi_nor_boot.o
isalnum                                           c:/nxp/mcuxpressoide_11.1.1_3241/ide/plugins/com.nxp.mcuxpresso.tools.win32_11.1.0.202001081728/tools/bin/../lib/gcc/arm-none-eabi/8.3.1/../../../../arm-none-eabi/lib/thumb/v7e-m+dp/hard\libcr_c.a(ctype.o)
isalpha                                           c:/nxp/mcuxpressoide_11.1.1_3241/ide/plugins/com.nxp.mcuxpresso.tools.win32_11.1.0.202001081728/tools/bin/../lib/gcc/arm-none-eabi/8.3.1/../../../../arm-none-eabi/lib/thumb/v7e-m+dp/hard\libcr_c.a(ctype.o)
iscntrl                                           c:/nxp/mcuxpressoide_11.1.1_3241/ide/plugins/com.nxp.mcuxpresso.tools.win32_11.1.0.202001081728/tools/bin/../lib/gcc/arm-none-eabi/8.3.1/../../../../arm-none-eabi/lib/thumb/v7e-m+dp/hard\libcr_c.a(ctype.o)
isdigit                                           c:/nxp/mcuxpressoide_11.1.1_3241/ide/plugins/com.nxp.mcuxpresso.tools.win32_11.1.0.202001081728/tools/bin/../lib/gcc/arm-none-eabi/8.3.1/../../../../arm-none-eabi/lib/thumb/v7e-m+dp/hard\libcr_c.a(ctype.o)
isgraph                                           c:/nxp/mcuxpressoide_11.1.1_3241/ide/plugins/com.nxp.mcuxpresso.tools.win32_11.1.0.202001081728/tools/bin/../lib/gcc/arm-none-eabi/8.3.1/../../../../arm-none-eabi/lib/thumb/v7e-m+dp/hard\libcr_c.a(ctype.o)
islower                                           c:/nxp/mcuxpressoide_11.1.1_3241/ide/plugins/com.nxp.mcuxpresso.tools.win32_11.1.0.202001081728/tools/bin/../lib/gcc/arm-none-eabi/8.3.1/../../../../arm-none-eabi/lib/thumb/v7e-m+dp/hard\libcr_c.a(ctype.o)
isprint                                           c:/nxp/mcuxpressoide_11.1.1_3241/ide/plugins/com.nxp.mcuxpresso.tools.win32_11.1.0.202001081728/tools/bin/../lib/gcc/arm-none-eabi/8.3.1/../../../../arm-none-eabi/lib/thumb/v7e-m+dp/hard\libcr_c.a(ctype.o)
ispunct                                           c:/nxp/mcuxpressoide_11.1.1_3241/ide/plugins/com.nxp.mcuxpresso.tools.win32_11.1.0.202001081728/tools/bin/../lib/gcc/arm-none-eabi/8.3.1/../../../../arm-none-eabi/lib/thumb/v7e-m+dp/hard\libcr_c.a(ctype.o)
isspace                                           c:/nxp/mcuxpressoide_11.1.1_3241/ide/plugins/com.nxp.mcuxpresso.tools.win32_11.1.0.202001081728/tools/bin/../lib/gcc/arm-none-eabi/8.3.1/../../../../arm-none-eabi/lib/thumb/v7e-m+dp/hard\libcr_c.a(ctype.o)
isupper                                           c:/nxp/mcuxpressoide_11.1.1_3241/ide/plugins/com.nxp.mcuxpresso.tools.win32_11.1.0.202001081728/tools/bin/../lib/gcc/arm-none-eabi/8.3.1/../../../../arm-none-eabi/lib/thumb/v7e-m+dp/hard\libcr_c.a(ctype.o)
isxdigit                                          c:/nxp/mcuxpressoide_11.1.1_3241/ide/plugins/com.nxp.mcuxpresso.tools.win32_11.1.0.202001081728/tools/bin/../lib/gcc/arm-none-eabi/8.3.1/../../../../arm-none-eabi/lib/thumb/v7e-m+dp/hard\libcr_c.a(ctype.o)
main                                              ./source/hello_world.o
                                                  c:/nxp/mcuxpressoide_11.1.1_3241/ide/plugins/com.nxp.mcuxpresso.tools.win32_11.1.0.202001081728/tools/bin/../lib/gcc/arm-none-eabi/8.3.1/../../../../arm-none-eabi/lib/thumb/v7e-m+dp/hard\libcr_nohost_nf.a(_cr__main.o)
malloc                                            c:/nxp/mcuxpressoide_11.1.1_3241/ide/plugins/com.nxp.mcuxpresso.tools.win32_11.1.0.202001081728/tools/bin/../lib/gcc/arm-none-eabi/8.3.1/../../../../arm-none-eabi/lib/thumb/v7e-m+dp/hard\libcr_c.a(alloc.o)
                                                  ./drivers/fsl_common.o
memcpy                                            c:/nxp/mcuxpressoide_11.1.1_3241/ide/plugins/com.nxp.mcuxpresso.tools.win32_11.1.0.202001081728/tools/bin/../lib/gcc/arm-none-eabi/8.3.1/../../../../arm-none-eabi/lib/thumb/v7e-m+dp/hard\libcr_c.a(memcpy.o)
                                                  c:/nxp/mcuxpressoide_11.1.1_3241/ide/plugins/com.nxp.mcuxpresso.tools.win32_11.1.0.202001081728/tools/bin/../lib/gcc/arm-none-eabi/8.3.1/../../../../arm-none-eabi/lib/thumb/v7e-m+dp/hard\libcr_c.a(alloc.o)
                                                  ./source/hello_world.o
                                                  ./utilities/fsl_str.o
memset                                            c:/nxp/mcuxpressoide_11.1.1_3241/ide/plugins/com.nxp.mcuxpresso.tools.win32_11.1.0.202001081728/tools/bin/../lib/gcc/arm-none-eabi/8.3.1/../../../../arm-none-eabi/lib/thumb/v7e-m+dp/hard\libcr_c.a(memset.o)
                                                  c:/nxp/mcuxpressoide_11.1.1_3241/ide/plugins/com.nxp.mcuxpresso.tools.win32_11.1.0.202001081728/tools/bin/../lib/gcc/arm-none-eabi/8.3.1/../../../../arm-none-eabi/lib/thumb/v7e-m+dp/hard\libcr_c.a(fclose.o)
                                                  c:/nxp/mcuxpressoide_11.1.1_3241/ide/plugins/com.nxp.mcuxpresso.tools.win32_11.1.0.202001081728/tools/bin/../lib/gcc/arm-none-eabi/8.3.1/../../../../arm-none-eabi/lib/thumb/v7e-m+dp/hard\libcr_c.a(scanf.o)
                                                  c:/nxp/mcuxpressoide_11.1.1_3241/ide/plugins/com.nxp.mcuxpresso.tools.win32_11.1.0.202001081728/tools/bin/../lib/gcc/arm-none-eabi/8.3.1/../../../../arm-none-eabi/lib/thumb/v7e-m+dp/hard\libcr_c.a(alloc.o)
                                                  ./component/serial_manager/serial_manager.o
                                                  ./drivers/fsl_lpuart.o
                                                  ./utilities/fsl_debug_console.o
qspiflash_config                                  ./xip/evkmimxrt1020_flexspi_nor_config.o
realloc                                           c:/nxp/mcuxpressoide_11.1.1_3241/ide/plugins/com.nxp.mcuxpresso.tools.win32_11.1.0.202001081728/tools/bin/../lib/gcc/arm-none-eabi/8.3.1/../../../../arm-none-eabi/lib/thumb/v7e-m+dp/hard\libcr_c.a(alloc.o)
remove                                            c:/nxp/mcuxpressoide_11.1.1_3241/ide/plugins/com.nxp.mcuxpresso.tools.win32_11.1.0.202001081728/tools/bin/../lib/gcc/arm-none-eabi/8.3.1/../../../../arm-none-eabi/lib/thumb/v7e-m+dp/hard\libcr_c.a(remove.o)
                                                  c:/nxp/mcuxpressoide_11.1.1_3241/ide/plugins/com.nxp.mcuxpresso.tools.win32_11.1.0.202001081728/tools/bin/../lib/gcc/arm-none-eabi/8.3.1/../../../../arm-none-eabi/lib/thumb/v7e-m+dp/hard\libcr_c.a(fclose.o)
rename                                            c:/nxp/mcuxpressoide_11.1.1_3241/ide/plugins/com.nxp.mcuxpresso.tools.win32_11.1.0.202001081728/tools/bin/../lib/gcc/arm-none-eabi/8.3.1/../../../../arm-none-eabi/lib/thumb/v7e-m+dp/hard\libcr_c.a(remove.o)
scanf                                             c:/nxp/mcuxpressoide_11.1.1_3241/ide/plugins/com.nxp.mcuxpresso.tools.win32_11.1.0.202001081728/tools/bin/../lib/gcc/arm-none-eabi/8.3.1/../../../../arm-none-eabi/lib/thumb/v7e-m+dp/hard\libcr_c.a(scanf.o)
setvbuf                                           c:/nxp/mcuxpressoide_11.1.1_3241/ide/plugins/com.nxp.mcuxpresso.tools.win32_11.1.0.202001081728/tools/bin/../lib/gcc/arm-none-eabi/8.3.1/../../../../arm-none-eabi/lib/thumb/v7e-m+dp/hard\libcr_c.a(setvbuf.o)
                                                  c:/nxp/mcuxpressoide_11.1.1_3241/ide/plugins/com.nxp.mcuxpresso.tools.win32_11.1.0.202001081728/tools/bin/../lib/gcc/arm-none-eabi/8.3.1/../../../../arm-none-eabi/lib/thumb/v7e-m+dp/hard\libcr_c.a(initio.o)
sscanf                                            c:/nxp/mcuxpressoide_11.1.1_3241/ide/plugins/com.nxp.mcuxpresso.tools.win32_11.1.0.202001081728/tools/bin/../lib/gcc/arm-none-eabi/8.3.1/../../../../arm-none-eabi/lib/thumb/v7e-m+dp/hard\libcr_c.a(scanf.o)
strlen                                            c:/nxp/mcuxpressoide_11.1.1_3241/ide/plugins/com.nxp.mcuxpresso.tools.win32_11.1.0.202001081728/tools/bin/../lib/gcc/arm-none-eabi/8.3.1/../../../../arm-none-eabi/lib/thumb/v7e-m+dp/hard\libcr_c.a(strlen.o)
                                                  c:/nxp/mcuxpressoide_11.1.1_3241/ide/plugins/com.nxp.mcuxpresso.tools.win32_11.1.0.202001081728/tools/bin/../lib/gcc/arm-none-eabi/8.3.1/../../../../arm-none-eabi/lib/thumb/v7e-m+dp/hard\libcr_c.a(remove.o)
                                                  c:/nxp/mcuxpressoide_11.1.1_3241/ide/plugins/com.nxp.mcuxpresso.tools.win32_11.1.0.202001081728/tools/bin/../lib/gcc/arm-none-eabi/8.3.1/../../../../arm-none-eabi/lib/thumb/v7e-m+dp/hard\libcr_c.a(scanf.o)
                                                  ./utilities/fsl_str.o
strtod                                            c:/nxp/mcuxpressoide_11.1.1_3241/ide/plugins/com.nxp.mcuxpresso.tools.win32_11.1.0.202001081728/tools/bin/../lib/gcc/arm-none-eabi/8.3.1/../../../../arm-none-eabi/lib/thumb/v7e-m+dp/hard\libcr_c.a(scanf.o)
strtof                                            c:/nxp/mcuxpressoide_11.1.1_3241/ide/plugins/com.nxp.mcuxpresso.tools.win32_11.1.0.202001081728/tools/bin/../lib/gcc/arm-none-eabi/8.3.1/../../../../arm-none-eabi/lib/thumb/v7e-m+dp/hard\libcr_c.a(scanf.o)
strtol                                            c:/nxp/mcuxpressoide_11.1.1_3241/ide/plugins/com.nxp.mcuxpresso.tools.win32_11.1.0.202001081728/tools/bin/../lib/gcc/arm-none-eabi/8.3.1/../../../../arm-none-eabi/lib/thumb/v7e-m+dp/hard\libcr_c.a(scanf.o)
strtoul                                           c:/nxp/mcuxpressoide_11.1.1_3241/ide/plugins/com.nxp.mcuxpresso.tools.win32_11.1.0.202001081728/tools/bin/../lib/gcc/arm-none-eabi/8.3.1/../../../../arm-none-eabi/lib/thumb/v7e-m+dp/hard\libcr_c.a(scanf.o)
                                                  ./utilities/fsl_str.o
sysPllConfig_BOARD_BootClockRUN                   ./board/clock_config.o
tolower                                           c:/nxp/mcuxpressoide_11.1.1_3241/ide/plugins/com.nxp.mcuxpresso.tools.win32_11.1.0.202001081728/tools/bin/../lib/gcc/arm-none-eabi/8.3.1/../../../../arm-none-eabi/lib/thumb/v7e-m+dp/hard\libcr_c.a(ctype.o)
toupper                                           c:/nxp/mcuxpressoide_11.1.1_3241/ide/plugins/com.nxp.mcuxpresso.tools.win32_11.1.0.202001081728/tools/bin/../lib/gcc/arm-none-eabi/8.3.1/../../../../arm-none-eabi/lib/thumb/v7e-m+dp/hard\libcr_c.a(ctype.o)
ungetc                                            c:/nxp/mcuxpressoide_11.1.1_3241/ide/plugins/com.nxp.mcuxpresso.tools.win32_11.1.0.202001081728/tools/bin/../lib/gcc/arm-none-eabi/8.3.1/../../../../arm-none-eabi/lib/thumb/v7e-m+dp/hard\libcr_c.a(ungetc.o)
                                                  c:/nxp/mcuxpressoide_11.1.1_3241/ide/plugins/com.nxp.mcuxpresso.tools.win32_11.1.0.202001081728/tools/bin/../lib/gcc/arm-none-eabi/8.3.1/../../../../arm-none-eabi/lib/thumb/v7e-m+dp/hard\libcr_c.a(scanf.o)
usb1PllConfig_BOARD_BootClockRUN                  ./board/clock_config.o
vfscanf                                           c:/nxp/mcuxpressoide_11.1.1_3241/ide/plugins/com.nxp.mcuxpresso.tools.win32_11.1.0.202001081728/tools/bin/../lib/gcc/arm-none-eabi/8.3.1/../../../../arm-none-eabi/lib/thumb/v7e-m+dp/hard\libcr_c.a(scanf.o)
